
Fussl-01.elf:     file format elf32-avr

Sections:
Idx Name          Size      VMA       LMA       File off  Algn
  0 .data         0000007e  00800100  00001dfe  00001e92  2**0
                  CONTENTS, ALLOC, LOAD, DATA
  1 .text         00001dfe  00000000  00000000  00000094  2**1
                  CONTENTS, ALLOC, LOAD, READONLY, CODE
  2 .bss          00000113  0080017e  0080017e  00001f10  2**0
                  ALLOC
  3 .comment      00000030  00000000  00000000  00001f10  2**0
                  CONTENTS, READONLY
  4 .note.gnu.avr.deviceinfo 0000003c  00000000  00000000  00001f40  2**2
                  CONTENTS, READONLY
  5 .debug_aranges 000002b8  00000000  00000000  00001f7c  2**0
                  CONTENTS, READONLY, DEBUGGING
  6 .debug_info   00004480  00000000  00000000  00002234  2**0
                  CONTENTS, READONLY, DEBUGGING
  7 .debug_abbrev 00001284  00000000  00000000  000066b4  2**0
                  CONTENTS, READONLY, DEBUGGING
  8 .debug_line   00001982  00000000  00000000  00007938  2**0
                  CONTENTS, READONLY, DEBUGGING
  9 .debug_frame  00000900  00000000  00000000  000092bc  2**2
                  CONTENTS, READONLY, DEBUGGING
 10 .debug_str    0000124c  00000000  00000000  00009bbc  2**0
                  CONTENTS, READONLY, DEBUGGING
 11 .debug_loc    000028f2  00000000  00000000  0000ae08  2**0
                  CONTENTS, READONLY, DEBUGGING
 12 .debug_ranges 00000278  00000000  00000000  0000d6fa  2**0
                  CONTENTS, READONLY, DEBUGGING

Disassembly of section .text:

00000000 <__vectors>:
       0:	45 c0       	rjmp	.+138    	; 0x8c <__ctors_end>
       2:	00 00       	nop
       4:	62 c0       	rjmp	.+196    	; 0xca <__bad_interrupt>
       6:	00 00       	nop
       8:	60 c0       	rjmp	.+192    	; 0xca <__bad_interrupt>
       a:	00 00       	nop
       c:	5e c0       	rjmp	.+188    	; 0xca <__bad_interrupt>
       e:	00 00       	nop
      10:	5c c0       	rjmp	.+184    	; 0xca <__bad_interrupt>
      12:	00 00       	nop
      14:	5a c0       	rjmp	.+180    	; 0xca <__bad_interrupt>
      16:	00 00       	nop
      18:	58 c0       	rjmp	.+176    	; 0xca <__bad_interrupt>
      1a:	00 00       	nop
      1c:	56 c0       	rjmp	.+172    	; 0xca <__bad_interrupt>
      1e:	00 00       	nop
      20:	54 c0       	rjmp	.+168    	; 0xca <__bad_interrupt>
      22:	00 00       	nop
      24:	52 c0       	rjmp	.+164    	; 0xca <__bad_interrupt>
      26:	00 00       	nop
      28:	50 c0       	rjmp	.+160    	; 0xca <__bad_interrupt>
      2a:	00 00       	nop
      2c:	4e c0       	rjmp	.+156    	; 0xca <__bad_interrupt>
      2e:	00 00       	nop
      30:	4c c0       	rjmp	.+152    	; 0xca <__bad_interrupt>
      32:	00 00       	nop
      34:	4a c0       	rjmp	.+148    	; 0xca <__bad_interrupt>
      36:	00 00       	nop
      38:	48 c0       	rjmp	.+144    	; 0xca <__bad_interrupt>
      3a:	00 00       	nop
      3c:	46 c0       	rjmp	.+140    	; 0xca <__bad_interrupt>
      3e:	00 00       	nop
      40:	44 c0       	rjmp	.+136    	; 0xca <__bad_interrupt>
      42:	00 00       	nop
      44:	42 c0       	rjmp	.+132    	; 0xca <__bad_interrupt>
      46:	00 00       	nop
      48:	40 c0       	rjmp	.+128    	; 0xca <__bad_interrupt>
      4a:	00 00       	nop
      4c:	3e c0       	rjmp	.+124    	; 0xca <__bad_interrupt>
      4e:	00 00       	nop
      50:	3c c0       	rjmp	.+120    	; 0xca <__bad_interrupt>
      52:	00 00       	nop
      54:	3a c0       	rjmp	.+116    	; 0xca <__bad_interrupt>
      56:	00 00       	nop
      58:	38 c0       	rjmp	.+112    	; 0xca <__bad_interrupt>
      5a:	00 00       	nop
      5c:	36 c0       	rjmp	.+108    	; 0xca <__bad_interrupt>
      5e:	00 00       	nop
      60:	34 c0       	rjmp	.+104    	; 0xca <__bad_interrupt>
      62:	00 00       	nop
      64:	32 c0       	rjmp	.+100    	; 0xca <__bad_interrupt>
      66:	00 00       	nop
      68:	30 c0       	rjmp	.+96     	; 0xca <__bad_interrupt>
      6a:	00 00       	nop
      6c:	2e c0       	rjmp	.+92     	; 0xca <__bad_interrupt>
      6e:	00 00       	nop
      70:	2c c0       	rjmp	.+88     	; 0xca <__bad_interrupt>
      72:	00 00       	nop
      74:	2a c0       	rjmp	.+84     	; 0xca <__bad_interrupt>
      76:	00 00       	nop
      78:	28 c0       	rjmp	.+80     	; 0xca <__bad_interrupt>
      7a:	00 00       	nop
      7c:	26 c0       	rjmp	.+76     	; 0xca <__bad_interrupt>
      7e:	00 00       	nop
      80:	24 c0       	rjmp	.+72     	; 0xca <__bad_interrupt>
      82:	00 00       	nop
      84:	22 c0       	rjmp	.+68     	; 0xca <__bad_interrupt>
      86:	00 00       	nop
      88:	20 c0       	rjmp	.+64     	; 0xca <__bad_interrupt>
	...

0000008c <__ctors_end>:
      8c:	11 24       	eor	r1, r1
      8e:	1f be       	out	0x3f, r1	; 63
      90:	cf ef       	ldi	r28, 0xFF	; 255
      92:	d0 e1       	ldi	r29, 0x10	; 16
      94:	de bf       	out	0x3e, r29	; 62
      96:	cd bf       	out	0x3d, r28	; 61

00000098 <__do_copy_data>:
      98:	11 e0       	ldi	r17, 0x01	; 1
      9a:	a0 e0       	ldi	r26, 0x00	; 0
      9c:	b1 e0       	ldi	r27, 0x01	; 1
      9e:	ee ef       	ldi	r30, 0xFE	; 254
      a0:	fd e1       	ldi	r31, 0x1D	; 29
      a2:	00 e0       	ldi	r16, 0x00	; 0
      a4:	0b bf       	out	0x3b, r16	; 59
      a6:	02 c0       	rjmp	.+4      	; 0xac <__do_copy_data+0x14>
      a8:	07 90       	elpm	r0, Z+
      aa:	0d 92       	st	X+, r0
      ac:	ae 37       	cpi	r26, 0x7E	; 126
      ae:	b1 07       	cpc	r27, r17
      b0:	d9 f7       	brne	.-10     	; 0xa8 <__do_copy_data+0x10>

000000b2 <__do_clear_bss>:
      b2:	22 e0       	ldi	r18, 0x02	; 2
      b4:	ae e7       	ldi	r26, 0x7E	; 126
      b6:	b1 e0       	ldi	r27, 0x01	; 1
      b8:	01 c0       	rjmp	.+2      	; 0xbc <.do_clear_bss_start>

000000ba <.do_clear_bss_loop>:
      ba:	1d 92       	st	X+, r1

000000bc <.do_clear_bss_start>:
      bc:	a1 39       	cpi	r26, 0x91	; 145
      be:	b2 07       	cpc	r27, r18
      c0:	e1 f7       	brne	.-8      	; 0xba <.do_clear_bss_loop>
      c2:	0e 94 65 0d 	call	0x1aca	; 0x1aca <main>
      c6:	0c 94 fd 0e 	jmp	0x1dfa	; 0x1dfa <_exit>

000000ca <__bad_interrupt>:
      ca:	9a cf       	rjmp	.-204    	; 0x0 <__vectors>

000000cc <_ZN4arch7pushBitEb>:
	arch::programHeaderInterpreter();
}

void arch::pushBit(bool bit){
	/* push a bit to the end of the light line */
	PORTB = (PORTB & 0b11111110) | bit;
      cc:	98 b3       	in	r25, 0x18	; 24
      ce:	9e 7f       	andi	r25, 0xFE	; 254
      d0:	89 2b       	or	r24, r25
      d2:	88 bb       	out	0x18, r24	; 24
	PORTB ^= 0b00000010;
      d4:	98 b3       	in	r25, 0x18	; 24
      d6:	82 e0       	ldi	r24, 0x02	; 2
      d8:	98 27       	eor	r25, r24
      da:	98 bb       	out	0x18, r25	; 24
	PORTB ^= 0b00000010;
      dc:	98 b3       	in	r25, 0x18	; 24
      de:	89 27       	eor	r24, r25
      e0:	88 bb       	out	0x18, r24	; 24
      e2:	08 95       	ret

000000e4 <_ZN4arch5latchEv>:
}

void arch::latch(void){
	/* send a latch signal to the light line */
	PORTB ^= 0b00000100;
      e4:	98 b3       	in	r25, 0x18	; 24
      e6:	84 e0       	ldi	r24, 0x04	; 4
      e8:	98 27       	eor	r25, r24
      ea:	98 bb       	out	0x18, r25	; 24
	PORTB ^= 0b00000100;
      ec:	98 b3       	in	r25, 0x18	; 24
      ee:	89 27       	eor	r24, r25
      f0:	88 bb       	out	0x18, r24	; 24
      f2:	08 95       	ret

000000f4 <_ZN4arch15pushLineVisibleEj>:
}

void arch::pushLineVisible(uint16_t line){// for user needing manipulation
      f4:	cf 92       	push	r12
      f6:	df 92       	push	r13
      f8:	ef 92       	push	r14
      fa:	ff 92       	push	r15
      fc:	0f 93       	push	r16
      fe:	1f 93       	push	r17
     100:	cf 93       	push	r28
     102:	df 93       	push	r29
     104:	7c 01       	movw	r14, r24
     106:	cf e0       	ldi	r28, 0x0F	; 15
     108:	d0 e0       	ldi	r29, 0x00	; 0
	/* push 16 bit to the light line (MSB first) and make it visible */
	for(int8_t i = 15; i>=0; --i){
		arch::pushBit(line & (1<<i));
     10a:	01 e0       	ldi	r16, 0x01	; 1
     10c:	10 e0       	ldi	r17, 0x00	; 0
     10e:	dd 24       	eor	r13, r13
     110:	d3 94       	inc	r13
     112:	c1 2c       	mov	r12, r1
     114:	98 01       	movw	r18, r16
     116:	0c 2e       	mov	r0, r28
     118:	02 c0       	rjmp	.+4      	; 0x11e <_ZN4arch15pushLineVisibleEj+0x2a>
     11a:	22 0f       	add	r18, r18
     11c:	33 1f       	adc	r19, r19
     11e:	0a 94       	dec	r0
     120:	e2 f7       	brpl	.-8      	; 0x11a <_ZN4arch15pushLineVisibleEj+0x26>
     122:	2e 21       	and	r18, r14
     124:	3f 21       	and	r19, r15
     126:	8d 2d       	mov	r24, r13
     128:	23 2b       	or	r18, r19
     12a:	09 f4       	brne	.+2      	; 0x12e <_ZN4arch15pushLineVisibleEj+0x3a>
     12c:	8c 2d       	mov	r24, r12
     12e:	ce df       	rcall	.-100    	; 0xcc <_ZN4arch7pushBitEb>
     130:	21 97       	sbiw	r28, 0x01	; 1
     132:	80 f7       	brcc	.-32     	; 0x114 <_ZN4arch15pushLineVisibleEj+0x20>
	}
	arch::latch();
     134:	d7 df       	rcall	.-82     	; 0xe4 <_ZN4arch5latchEv>
}
     136:	df 91       	pop	r29
     138:	cf 91       	pop	r28
     13a:	1f 91       	pop	r17
     13c:	0f 91       	pop	r16
     13e:	ff 90       	pop	r15
     140:	ef 90       	pop	r14
     142:	df 90       	pop	r13
     144:	cf 90       	pop	r12
     146:	08 95       	ret

00000148 <_ZN4arch10readBufferEv>:

void arch::readBuffer(void){
     148:	cf 93       	push	r28
     14a:	df 93       	push	r29
	/* check whether we can read from the light buffer. if so: execute one buffer entry. if not: set the bufferWait Flag */
	if (state.light.read!=state.light.write){
     14c:	c0 91 ef 01 	lds	r28, 0x01EF	; 0x8001ef <__data_end+0x71>
     150:	80 91 f0 01 	lds	r24, 0x01F0	; 0x8001f0 <__data_end+0x72>
     154:	c8 17       	cp	r28, r24
     156:	d1 f0       	breq	.+52     	; 0x18c <_ZN4arch10readBufferEv+0x44>
		if (state.light.buffer[state.light.read].light>>15 == 0){
     158:	d0 e0       	ldi	r29, 0x00	; 0
     15a:	fe 01       	movw	r30, r28
     15c:	ee 0f       	add	r30, r30
     15e:	ff 1f       	adc	r31, r31
     160:	ec 0f       	add	r30, r28
     162:	fd 1f       	adc	r31, r29
     164:	e1 54       	subi	r30, 0x41	; 65
     166:	fe 4f       	sbci	r31, 0xFE	; 254
     168:	80 81       	ld	r24, Z
     16a:	91 81       	ldd	r25, Z+1	; 0x01
     16c:	99 23       	and	r25, r25
     16e:	0c f0       	brlt	.+2      	; 0x172 <_ZN4arch10readBufferEv+0x2a>
			arch::pushLineVisible(state.light.buffer[state.light.read].light);
     170:	c1 df       	rcall	.-126    	; 0xf4 <_ZN4arch15pushLineVisibleEj>
inline void BufferWriteIndexerInc(){
	state.light.write = (state.light.write + 1 ) % BUFFERSIZE;
}

inline void BufferReadIndexerInc(){
	state.light.read = (state.light.read + 1) % BUFFERSIZE;
     172:	ce 01       	movw	r24, r28
     174:	01 96       	adiw	r24, 0x01	; 1
     176:	8f 70       	andi	r24, 0x0F	; 15
     178:	90 78       	andi	r25, 0x80	; 128
     17a:	99 23       	and	r25, r25
     17c:	24 f4       	brge	.+8      	; 0x186 <_ZN4arch10readBufferEv+0x3e>
     17e:	01 97       	sbiw	r24, 0x01	; 1
     180:	80 6f       	ori	r24, 0xF0	; 240
     182:	9f 6f       	ori	r25, 0xFF	; 255
     184:	01 96       	adiw	r24, 0x01	; 1
     186:	80 93 ef 01 	sts	0x01EF, r24	; 0x8001ef <__data_end+0x71>
     18a:	03 c0       	rjmp	.+6      	; 0x192 <_ZN4arch10readBufferEv+0x4a>
			arch::pushLineVisible(state.light.buffer[state.light.read].light);
		}
		//### set timer = state.light.buffer[state.light.read].delay; after time execute arch::readBuffer
		BufferReadIndexerInc();
	} else {
		state.light.bufferWait = true;
     18c:	81 e0       	ldi	r24, 0x01	; 1
     18e:	80 93 f1 01 	sts	0x01F1, r24	; 0x8001f1 <__data_end+0x73>
		// set a waiting signal to led output??? <<<< gui can do ths
	}
}
     192:	df 91       	pop	r29
     194:	cf 91       	pop	r28
     196:	08 95       	ret

00000198 <_ZN4arch17instructionLengthEh>:

uint8_t arch::instructionLength(const uint8_t firstByte){
	/* return the length of the instruction in bytes when the first byte is given */
	if  (	(firstByte >= (3<<6)) /* ALU Register */
     198:	80 3c       	cpi	r24, 0xC0	; 192
     19a:	58 f4       	brcc	.+22     	; 0x1b2 <_ZN4arch17instructionLengthEh+0x1a>
		||	((firstByte & 0b11110100) == 0b10110100) /* DEC (Register) and WAIT-R */	){	
     19c:	98 2f       	mov	r25, r24
     19e:	94 7f       	andi	r25, 0xF4	; 244
     1a0:	94 3b       	cpi	r25, 0xB4	; 180
     1a2:	49 f0       	breq	.+18     	; 0x1b6 <_ZN4arch17instructionLengthEh+0x1e>
		return 1; // 8 bit
	}
	if ((firstByte & 0b11110000)==0x80){ /* Jump on Condition */
     1a4:	80 7f       	andi	r24, 0xF0	; 240
     1a6:	80 38       	cpi	r24, 0x80	; 128
     1a8:	41 f0       	breq	.+16     	; 0x1ba <_ZN4arch17instructionLengthEh+0x22>
		return 3; // 24 bit
	}
	if ((firstByte & 0b11110000)==0xA0){ /* CALL */
     1aa:	80 3a       	cpi	r24, 0xA0	; 160
     1ac:	41 f0       	breq	.+16     	; 0x1be <_ZN4arch17instructionLengthEh+0x26>
		return 8; // 64 bit
	}
	return 2; // 16 bit (for each other instruction)
     1ae:	82 e0       	ldi	r24, 0x02	; 2
     1b0:	08 95       	ret

uint8_t arch::instructionLength(const uint8_t firstByte){
	/* return the length of the instruction in bytes when the first byte is given */
	if  (	(firstByte >= (3<<6)) /* ALU Register */
		||	((firstByte & 0b11110100) == 0b10110100) /* DEC (Register) and WAIT-R */	){	
		return 1; // 8 bit
     1b2:	81 e0       	ldi	r24, 0x01	; 1
     1b4:	08 95       	ret
     1b6:	81 e0       	ldi	r24, 0x01	; 1
     1b8:	08 95       	ret
	}
	if ((firstByte & 0b11110000)==0x80){ /* Jump on Condition */
		return 3; // 24 bit
     1ba:	83 e0       	ldi	r24, 0x03	; 3
     1bc:	08 95       	ret
	}
	if ((firstByte & 0b11110000)==0xA0){ /* CALL */
		return 8; // 64 bit
     1be:	88 e0       	ldi	r24, 0x08	; 8
	}
	return 2; // 16 bit (for each other instruction)
}
     1c0:	08 95       	ret

000001c2 <_ZN4arch17EEPAddressHelper_EhhRKb>:

uint16_t arch::EEPAddressHelper_(uint8_t program, uint8_t instruction, const bool& counting){
     1c2:	cf 92       	push	r12
     1c4:	df 92       	push	r13
     1c6:	ef 92       	push	r14
     1c8:	ff 92       	push	r15
     1ca:	0f 93       	push	r16
     1cc:	1f 93       	push	r17
     1ce:	cf 93       	push	r28
     1d0:	df 93       	push	r29
     1d2:	d8 2f       	mov	r29, r24
     1d4:	d6 2e       	mov	r13, r22
     1d6:	7a 01       	movw	r14, r20
	/* combined calculating of:
				EEPROM program address (given program ID, instruction of program)		(iff counting==false)
				program counting	(up to 255)											(iff counting)
																													*/
	uint16_t ptr = PROGRAMSTART;
	if ((program == 0) && !counting){
     1d8:	81 11       	cpse	r24, r1
     1da:	07 c0       	rjmp	.+14     	; 0x1ea <_ZN4arch17EEPAddressHelper_EhhRKb+0x28>
     1dc:	fa 01       	movw	r30, r20
     1de:	80 81       	ld	r24, Z
     1e0:	81 11       	cpse	r24, r1
     1e2:	0a c0       	rjmp	.+20     	; 0x1f8 <_ZN4arch17EEPAddressHelper_EhhRKb+0x36>
		ptr = EEPNULL;
     1e4:	8f ef       	ldi	r24, 0xFF	; 255
     1e6:	9f ef       	ldi	r25, 0xFF	; 255
     1e8:	69 c0       	rjmp	.+210    	; 0x2bc <_ZN4arch17EEPAddressHelper_EhhRKb+0xfa>
		// ledError(3); ## please delete error from manuscript this should be allowed for compatibility
	} else {
		// select the program
		--program;
		if (counting) program = 0;
     1ea:	fa 01       	movw	r30, r20
     1ec:	80 81       	ld	r24, Z
     1ee:	81 11       	cpse	r24, r1
     1f0:	02 c0       	rjmp	.+4      	; 0x1f6 <_ZN4arch17EEPAddressHelper_EhhRKb+0x34>
	if ((program == 0) && !counting){
		ptr = EEPNULL;
		// ledError(3); ## please delete error from manuscript this should be allowed for compatibility
	} else {
		// select the program
		--program;
     1f2:	d1 50       	subi	r29, 0x01	; 1
     1f4:	01 c0       	rjmp	.+2      	; 0x1f8 <_ZN4arch17EEPAddressHelper_EhhRKb+0x36>
		if (counting) program = 0;
     1f6:	d0 e0       	ldi	r29, 0x00	; 0
		while (program || counting){
			--program;
     1f8:	00 e0       	ldi	r16, 0x00	; 0
     1fa:	14 e0       	ldi	r17, 0x04	; 4
     1fc:	cc 24       	eor	r12, r12
     1fe:	ca 94       	dec	r12
     200:	2d c0       	rjmp	.+90     	; 0x25c <_ZN4arch17EEPAddressHelper_EhhRKb+0x9a>
     202:	d1 50       	subi	r29, 0x01	; 1
			ptr =  (static_cast<uint16_t>(eeprom_read_byte((uint8_t*)ptr))<<8) | eeprom_read_byte((uint8_t*)(ptr+1));// read two bytes big endian
     204:	c8 01       	movw	r24, r16
     206:	0e 94 f5 0e 	call	0x1dea	; 0x1dea <eeprom_read_byte>
     20a:	c8 2f       	mov	r28, r24
     20c:	c8 01       	movw	r24, r16
     20e:	01 96       	adiw	r24, 0x01	; 1
     210:	0e 94 f5 0e 	call	0x1dea	; 0x1dea <eeprom_read_byte>
     214:	2c 2f       	mov	r18, r28
     216:	30 e0       	ldi	r19, 0x00	; 0
     218:	32 2f       	mov	r19, r18
     21a:	22 27       	eor	r18, r18
     21c:	89 01       	movw	r16, r18
     21e:	08 2b       	or	r16, r24
			if (hardware::isEEPNull(ptr)) {
     220:	c8 01       	movw	r24, r16
     222:	82 d7       	rcall	.+3844   	; 0x1128 <_ZN8hardware9isEEPNullEj>
     224:	88 23       	and	r24, r24
     226:	81 f0       	breq	.+32     	; 0x248 <_ZN4arch17EEPAddressHelper_EhhRKb+0x86>
     228:	01 c0       	rjmp	.+2      	; 0x22c <_ZN4arch17EEPAddressHelper_EhhRKb+0x6a>
	} else {
		// select the program
		--program;
		if (counting) program = 0;
		while (program || counting){
			--program;
     22a:	dc 2d       	mov	r29, r12
			ptr =  (static_cast<uint16_t>(eeprom_read_byte((uint8_t*)ptr))<<8) | eeprom_read_byte((uint8_t*)(ptr+1));// read two bytes big endian
			if (hardware::isEEPNull(ptr)) {
				if (counting){
     22c:	f7 01       	movw	r30, r14
     22e:	80 81       	ld	r24, Z
     230:	88 23       	and	r24, r24
     232:	31 f0       	breq	.+12     	; 0x240 <_ZN4arch17EEPAddressHelper_EhhRKb+0x7e>
					return -program;
     234:	8d 2f       	mov	r24, r29
     236:	90 e0       	ldi	r25, 0x00	; 0
     238:	91 95       	neg	r25
     23a:	81 95       	neg	r24
     23c:	91 09       	sbc	r25, r1
     23e:	3e c0       	rjmp	.+124    	; 0x2bc <_ZN4arch17EEPAddressHelper_EhhRKb+0xfa>
				}
				led::error(101);
     240:	85 e6       	ldi	r24, 0x65	; 101
     242:	90 e0       	ldi	r25, 0x00	; 0
     244:	0e 94 7a 0b 	call	0x16f4	; 0x16f4 <_ZN3led5errorEj>
			}
			if ((program==0) && counting){
     248:	d1 11       	cpse	r29, r1
     24a:	08 c0       	rjmp	.+16     	; 0x25c <_ZN4arch17EEPAddressHelper_EhhRKb+0x9a>
     24c:	f7 01       	movw	r30, r14
     24e:	80 81       	ld	r24, Z
     250:	88 23       	and	r24, r24
     252:	21 f0       	breq	.+8      	; 0x25c <_ZN4arch17EEPAddressHelper_EhhRKb+0x9a>
				led::error(1);
     254:	81 e0       	ldi	r24, 0x01	; 1
     256:	90 e0       	ldi	r25, 0x00	; 0
     258:	0e 94 7a 0b 	call	0x16f4	; 0x16f4 <_ZN3led5errorEj>
		// ledError(3); ## please delete error from manuscript this should be allowed for compatibility
	} else {
		// select the program
		--program;
		if (counting) program = 0;
		while (program || counting){
     25c:	d1 11       	cpse	r29, r1
     25e:	d1 cf       	rjmp	.-94     	; 0x202 <_ZN4arch17EEPAddressHelper_EhhRKb+0x40>
     260:	f7 01       	movw	r30, r14
     262:	80 81       	ld	r24, Z
     264:	81 11       	cpse	r24, r1
     266:	16 c0       	rjmp	.+44     	; 0x294 <_ZN4arch17EEPAddressHelper_EhhRKb+0xd2>
		if (counting){
			led::error(102);
		}
		// select the certain instruction
		// instruction == 0 : init part of the program;
		if (instruction){
     268:	dd 20       	and	r13, r13
     26a:	81 f0       	breq	.+32     	; 0x28c <_ZN4arch17EEPAddressHelper_EhhRKb+0xca>
			ptr += 14;
     26c:	e8 01       	movw	r28, r16
     26e:	2e 96       	adiw	r28, 0x0e	; 14
			--instruction;
     270:	da 94       	dec	r13
			while (instruction){
     272:	dd 20       	and	r13, r13
     274:	69 f0       	breq	.+26     	; 0x290 <_ZN4arch17EEPAddressHelper_EhhRKb+0xce>
				--instruction;
     276:	da 94       	dec	r13
				ptr += arch::instructionLength(eeprom_read_byte((uint8_t*) ptr));
     278:	ce 01       	movw	r24, r28
     27a:	0e 94 f5 0e 	call	0x1dea	; 0x1dea <eeprom_read_byte>
     27e:	8c df       	rcall	.-232    	; 0x198 <_ZN4arch17instructionLengthEh>
     280:	c8 0f       	add	r28, r24
     282:	d1 1d       	adc	r29, r1
		// select the certain instruction
		// instruction == 0 : init part of the program;
		if (instruction){
			ptr += 14;
			--instruction;
			while (instruction){
     284:	d1 10       	cpse	r13, r1
     286:	f7 cf       	rjmp	.-18     	; 0x276 <_ZN4arch17EEPAddressHelper_EhhRKb+0xb4>
				--instruction;
				ptr += arch::instructionLength(eeprom_read_byte((uint8_t*) ptr));
     288:	ce 01       	movw	r24, r28
     28a:	18 c0       	rjmp	.+48     	; 0x2bc <_ZN4arch17EEPAddressHelper_EhhRKb+0xfa>
     28c:	c8 01       	movw	r24, r16
     28e:	16 c0       	rjmp	.+44     	; 0x2bc <_ZN4arch17EEPAddressHelper_EhhRKb+0xfa>
			led::error(102);
		}
		// select the certain instruction
		// instruction == 0 : init part of the program;
		if (instruction){
			ptr += 14;
     290:	ce 01       	movw	r24, r28
     292:	14 c0       	rjmp	.+40     	; 0x2bc <_ZN4arch17EEPAddressHelper_EhhRKb+0xfa>
		// select the program
		--program;
		if (counting) program = 0;
		while (program || counting){
			--program;
			ptr =  (static_cast<uint16_t>(eeprom_read_byte((uint8_t*)ptr))<<8) | eeprom_read_byte((uint8_t*)(ptr+1));// read two bytes big endian
     294:	c8 01       	movw	r24, r16
     296:	0e 94 f5 0e 	call	0x1dea	; 0x1dea <eeprom_read_byte>
     29a:	c8 2f       	mov	r28, r24
     29c:	c8 01       	movw	r24, r16
     29e:	01 96       	adiw	r24, 0x01	; 1
     2a0:	0e 94 f5 0e 	call	0x1dea	; 0x1dea <eeprom_read_byte>
     2a4:	2c 2f       	mov	r18, r28
     2a6:	30 e0       	ldi	r19, 0x00	; 0
     2a8:	32 2f       	mov	r19, r18
     2aa:	22 27       	eor	r18, r18
     2ac:	89 01       	movw	r16, r18
     2ae:	08 2b       	or	r16, r24
			if (hardware::isEEPNull(ptr)) {
     2b0:	c8 01       	movw	r24, r16
     2b2:	3a d7       	rcall	.+3700   	; 0x1128 <_ZN8hardware9isEEPNullEj>
     2b4:	81 11       	cpse	r24, r1
     2b6:	b9 cf       	rjmp	.-142    	; 0x22a <_ZN4arch17EEPAddressHelper_EhhRKb+0x68>
	} else {
		// select the program
		--program;
		if (counting) program = 0;
		while (program || counting){
			--program;
     2b8:	dc 2d       	mov	r29, r12
     2ba:	d0 cf       	rjmp	.-96     	; 0x25c <_ZN4arch17EEPAddressHelper_EhhRKb+0x9a>
				ptr += arch::instructionLength(eeprom_read_byte((uint8_t*) ptr));
			}
		}
	}
	return ptr;
}
     2bc:	df 91       	pop	r29
     2be:	cf 91       	pop	r28
     2c0:	1f 91       	pop	r17
     2c2:	0f 91       	pop	r16
     2c4:	ff 90       	pop	r15
     2c6:	ef 90       	pop	r14
     2c8:	df 90       	pop	r13
     2ca:	cf 90       	pop	r12
     2cc:	08 95       	ret

000002ce <_ZN4arch14getProgramNameEhPc>:

void arch::getProgramName(uint8_t program, char* string_8_bytes){// for gui programmer
     2ce:	cf 92       	push	r12
     2d0:	df 92       	push	r13
     2d2:	ef 92       	push	r14
     2d4:	ff 92       	push	r15
     2d6:	0f 93       	push	r16
     2d8:	1f 93       	push	r17
     2da:	cf 93       	push	r28
     2dc:	df 93       	push	r29
     2de:	00 d0       	rcall	.+0      	; 0x2e0 <_ZN4arch14getProgramNameEhPc+0x12>
     2e0:	00 d0       	rcall	.+0      	; 0x2e2 <_ZN4arch14getProgramNameEhPc+0x14>
     2e2:	1f 92       	push	r1
     2e4:	cd b7       	in	r28, 0x3d	; 61
     2e6:	de b7       	in	r29, 0x3e	; 62
     2e8:	6b 01       	movw	r12, r22
	/* read the program name of a given program from the EEPROM */
	if (program == 0){
     2ea:	81 11       	cpse	r24, r1
     2ec:	10 c0       	rjmp	.+32     	; 0x30e <_ZN4arch14getProgramNameEhPc+0x40>
		char off[] = "OFF";
     2ee:	8f e4       	ldi	r24, 0x4F	; 79
     2f0:	96 e4       	ldi	r25, 0x46	; 70
     2f2:	a6 e4       	ldi	r26, 0x46	; 70
     2f4:	b0 e0       	ldi	r27, 0x00	; 0
     2f6:	8a 83       	std	Y+2, r24	; 0x02
     2f8:	9b 83       	std	Y+3, r25	; 0x03
     2fa:	ac 83       	std	Y+4, r26	; 0x04
     2fc:	bd 83       	std	Y+5, r27	; 0x05
		hardware::copyString(string_8_bytes,off,8,false);
     2fe:	20 e0       	ldi	r18, 0x00	; 0
     300:	48 e0       	ldi	r20, 0x08	; 8
     302:	be 01       	movw	r22, r28
     304:	6e 5f       	subi	r22, 0xFE	; 254
     306:	7f 4f       	sbci	r23, 0xFF	; 255
     308:	c6 01       	movw	r24, r12
     30a:	20 d7       	rcall	.+3648   	; 0x114c <_ZN8hardware10copyStringEPcPKchb>
     30c:	18 c0       	rjmp	.+48     	; 0x33e <_ZN4arch14getProgramNameEhPc+0x70>
					program counting	(up to 255)											(iff counting)
																														*/
	
	inline uint16_t getAddress(uint8_t program, uint8_t instruction){
		/* calculate the eeprom address of instruction (instruction) in program (program) */
		return EEPAddressHelper_(program,instruction);
     30e:	19 82       	std	Y+1, r1	; 0x01
     310:	ae 01       	movw	r20, r28
     312:	4f 5f       	subi	r20, 0xFF	; 255
     314:	5f 4f       	sbci	r21, 0xFF	; 255
     316:	60 e0       	ldi	r22, 0x00	; 0
     318:	54 df       	rcall	.-344    	; 0x1c2 <_ZN4arch17EEPAddressHelper_EhhRKb>
     31a:	76 01       	movw	r14, r12
     31c:	28 e0       	ldi	r18, 0x08	; 8
     31e:	c2 0e       	add	r12, r18
     320:	d1 1c       	adc	r13, r1
	} else {
		uint16_t address = arch::getAddress(program,0) + 2;
     322:	8c 01       	movw	r16, r24
     324:	0e 5f       	subi	r16, 0xFE	; 254
     326:	1f 4f       	sbci	r17, 0xFF	; 255
		for (uint8_t i = 0; i<8; ++i){
			string_8_bytes[i] = eeprom_read_byte((uint8_t*) (address + i));
     328:	c8 01       	movw	r24, r16
     32a:	0e 94 f5 0e 	call	0x1dea	; 0x1dea <eeprom_read_byte>
     32e:	f7 01       	movw	r30, r14
     330:	81 93       	st	Z+, r24
     332:	7f 01       	movw	r14, r30
     334:	0f 5f       	subi	r16, 0xFF	; 255
     336:	1f 4f       	sbci	r17, 0xFF	; 255
	if (program == 0){
		char off[] = "OFF";
		hardware::copyString(string_8_bytes,off,8,false);
	} else {
		uint16_t address = arch::getAddress(program,0) + 2;
		for (uint8_t i = 0; i<8; ++i){
     338:	ec 15       	cp	r30, r12
     33a:	fd 05       	cpc	r31, r13
     33c:	a9 f7       	brne	.-22     	; 0x328 <_ZN4arch14getProgramNameEhPc+0x5a>
			string_8_bytes[i] = eeprom_read_byte((uint8_t*) (address + i));
		}
	} // ### check if running correctly
}
     33e:	0f 90       	pop	r0
     340:	0f 90       	pop	r0
     342:	0f 90       	pop	r0
     344:	0f 90       	pop	r0
     346:	0f 90       	pop	r0
     348:	df 91       	pop	r29
     34a:	cf 91       	pop	r28
     34c:	1f 91       	pop	r17
     34e:	0f 91       	pop	r16
     350:	ff 90       	pop	r15
     352:	ef 90       	pop	r14
     354:	df 90       	pop	r13
     356:	cf 90       	pop	r12
     358:	08 95       	ret

0000035a <_ZN4arch24programHeaderInterpreterEv>:

void arch::programHeaderInterpreter(){
     35a:	cf 92       	push	r12
     35c:	df 92       	push	r13
     35e:	ef 92       	push	r14
     360:	ff 92       	push	r15
     362:	0f 93       	push	r16
     364:	1f 93       	push	r17
     366:	cf 93       	push	r28
     368:	df 93       	push	r29
	/* interprete the 14 INIT Bytes of the begin of a program (and update the pc) */
	pavrecord avrecord = &(state.light.avrecord[state.light.ptr]);
     36a:	c0 91 be 01 	lds	r28, 0x01BE	; 0x8001be <__data_end+0x40>
     36e:	ec 2e       	mov	r14, r28
     370:	f1 2c       	mov	r15, r1
	   C:										Reg 2
	   D:										Reg 3
	   E:													------------------------------------- address of the 1st instruction (PROGRAM PART)
	   F:		...															*/
	/************************************************************************/
	if (avrecord->program==0){ // if program 0 is called there is no header to deal with
     372:	f7 01       	movw	r30, r14
     374:	ee 0f       	add	r30, r30
     376:	ff 1f       	adc	r31, r31
     378:	ee 0f       	add	r30, r30
     37a:	ff 1f       	adc	r31, r31
     37c:	ee 0f       	add	r30, r30
     37e:	ff 1f       	adc	r31, r31
     380:	e2 58       	subi	r30, 0x82	; 130
     382:	fe 4f       	sbci	r31, 0xFE	; 254
     384:	80 81       	ld	r24, Z
     386:	88 23       	and	r24, r24
     388:	89 f1       	breq	.+98     	; 0x3ec <_ZN4arch24programHeaderInterpreterEv+0x92>
		return;
	}
	for(uint8_t i = 1; i < 4; ++i){
		avrecord->reg[i] = eeprom_read_byte((uint8_t*)(avrecord->pc+10+i));
     38a:	f7 01       	movw	r30, r14
     38c:	ee 0f       	add	r30, r30
     38e:	ff 1f       	adc	r31, r31
     390:	ee 0f       	add	r30, r30
     392:	ff 1f       	adc	r31, r31
     394:	ee 0f       	add	r30, r30
     396:	ff 1f       	adc	r31, r31
     398:	e2 58       	subi	r30, 0x82	; 130
     39a:	fe 4f       	sbci	r31, 0xFE	; 254
     39c:	c1 80       	ldd	r12, Z+1	; 0x01
     39e:	d2 80       	ldd	r13, Z+2	; 0x02
     3a0:	86 01       	movw	r16, r12
     3a2:	05 5f       	subi	r16, 0xF5	; 245
     3a4:	1f 4f       	sbci	r17, 0xFF	; 255
     3a6:	e7 01       	movw	r28, r14
     3a8:	cc 0f       	add	r28, r28
     3aa:	dd 1f       	adc	r29, r29
     3ac:	cc 0f       	add	r28, r28
     3ae:	dd 1f       	adc	r29, r29
     3b0:	cc 0f       	add	r28, r28
     3b2:	dd 1f       	adc	r29, r29
     3b4:	cd 57       	subi	r28, 0x7D	; 125
     3b6:	de 4f       	sbci	r29, 0xFE	; 254
     3b8:	8e e0       	ldi	r24, 0x0E	; 14
     3ba:	c8 0e       	add	r12, r24
     3bc:	d1 1c       	adc	r13, r1
     3be:	c8 01       	movw	r24, r16
     3c0:	0e 94 f5 0e 	call	0x1dea	; 0x1dea <eeprom_read_byte>
     3c4:	89 93       	st	Y+, r24
     3c6:	0f 5f       	subi	r16, 0xFF	; 255
     3c8:	1f 4f       	sbci	r17, 0xFF	; 255
	   F:		...															*/
	/************************************************************************/
	if (avrecord->program==0){ // if program 0 is called there is no header to deal with
		return;
	}
	for(uint8_t i = 1; i < 4; ++i){
     3ca:	0c 15       	cp	r16, r12
     3cc:	1d 05       	cpc	r17, r13
     3ce:	b9 f7       	brne	.-18     	; 0x3be <_ZN4arch24programHeaderInterpreterEv+0x64>
		avrecord->reg[i] = eeprom_read_byte((uint8_t*)(avrecord->pc+10+i));
	}
	avrecord->pc += 14;
     3d0:	f7 01       	movw	r30, r14
     3d2:	ee 0f       	add	r30, r30
     3d4:	ff 1f       	adc	r31, r31
     3d6:	ee 0f       	add	r30, r30
     3d8:	ff 1f       	adc	r31, r31
     3da:	ee 0f       	add	r30, r30
     3dc:	ff 1f       	adc	r31, r31
     3de:	e2 58       	subi	r30, 0x82	; 130
     3e0:	fe 4f       	sbci	r31, 0xFE	; 254
     3e2:	81 81       	ldd	r24, Z+1	; 0x01
     3e4:	92 81       	ldd	r25, Z+2	; 0x02
     3e6:	0e 96       	adiw	r24, 0x0e	; 14
     3e8:	92 83       	std	Z+2, r25	; 0x02
     3ea:	81 83       	std	Z+1, r24	; 0x01
}
     3ec:	df 91       	pop	r29
     3ee:	cf 91       	pop	r28
     3f0:	1f 91       	pop	r17
     3f2:	0f 91       	pop	r16
     3f4:	ff 90       	pop	r15
     3f6:	ef 90       	pop	r14
     3f8:	df 90       	pop	r13
     3fa:	cf 90       	pop	r12
     3fc:	08 95       	ret

000003fe <_ZN4arch10runProgramEh>:

inline void BufferReadIndexerInc(){
	state.light.read = (state.light.read + 1) % BUFFERSIZE;
}

void arch::runProgram(uint8_t program){// for user
     3fe:	0f 93       	push	r16
     400:	1f 93       	push	r17
     402:	cf 93       	push	r28
     404:	df 93       	push	r29
     406:	1f 92       	push	r1
     408:	cd b7       	in	r28, 0x3d	; 61
     40a:	de b7       	in	r29, 0x3e	; 62
	/* initialization of avrecord to run given program */
	//## turn off timer
	state.light.ptr = 0;
     40c:	0e e7       	ldi	r16, 0x7E	; 126
     40e:	11 e0       	ldi	r17, 0x01	; 1
     410:	10 92 be 01 	sts	0x01BE, r1	; 0x8001be <__data_end+0x40>
	state.light.avrecord[0].returnMatter = 0x00;
     414:	f8 01       	movw	r30, r16
     416:	13 82       	std	Z+3, r1	; 0x03
	state.light.avrecord[0].program = program;
     418:	80 83       	st	Z, r24
     41a:	19 82       	std	Y+1, r1	; 0x01
     41c:	ae 01       	movw	r20, r28
     41e:	4f 5f       	subi	r20, 0xFF	; 255
     420:	5f 4f       	sbci	r21, 0xFF	; 255
     422:	60 e0       	ldi	r22, 0x00	; 0
     424:	ce de       	rcall	.-612    	; 0x1c2 <_ZN4arch17EEPAddressHelper_EhhRKb>
	state.light.avrecord[0].pc = arch::getAddress(program,0);
     426:	f8 01       	movw	r30, r16
     428:	92 83       	std	Z+2, r25	; 0x02
     42a:	81 83       	std	Z+1, r24	; 0x01
	state.light.read =  0;
     42c:	10 92 ef 01 	sts	0x01EF, r1	; 0x8001ef <__data_end+0x71>
	state.light.write = 0;
     430:	10 92 f0 01 	sts	0x01F0, r1	; 0x8001f0 <__data_end+0x72>
	
	state.light.bufferWait = true;
     434:	81 e0       	ldi	r24, 0x01	; 1
     436:	80 93 f1 01 	sts	0x01F1, r24	; 0x8001f1 <__data_end+0x73>
} tstate;

static tstate state;

inline void WaitOnlyBufferPrepare(){
	state.light.buffer[state.light.write].light = 0x8000;
     43a:	80 e0       	ldi	r24, 0x00	; 0
     43c:	90 e8       	ldi	r25, 0x80	; 128
     43e:	90 93 c0 01 	sts	0x01C0, r25	; 0x8001c0 <__data_end+0x42>
     442:	80 93 bf 01 	sts	0x01BF, r24	; 0x8001bf <__data_end+0x41>
	state.light.write = 0;
	
	state.light.bufferWait = true;
	WaitOnlyBufferPrepare();
	// ## timer will be started automatically because of bufferWait
	arch::programHeaderInterpreter();
     446:	89 df       	rcall	.-238    	; 0x35a <_ZN4arch24programHeaderInterpreterEv>
}
     448:	0f 90       	pop	r0
     44a:	df 91       	pop	r29
     44c:	cf 91       	pop	r28
     44e:	1f 91       	pop	r17
     450:	0f 91       	pop	r16
     452:	08 95       	ret

00000454 <_ZN4arch11fetchBufferEv>:
		avrecord->reg[i] = eeprom_read_byte((uint8_t*)(avrecord->pc+10+i));
	}
	avrecord->pc += 14;
}

bool arch::fetchBuffer(void){// check the prg logic !!! ######
     454:	2f 92       	push	r2
     456:	3f 92       	push	r3
     458:	4f 92       	push	r4
     45a:	5f 92       	push	r5
     45c:	6f 92       	push	r6
     45e:	7f 92       	push	r7
     460:	8f 92       	push	r8
     462:	9f 92       	push	r9
     464:	af 92       	push	r10
     466:	bf 92       	push	r11
     468:	cf 92       	push	r12
     46a:	df 92       	push	r13
     46c:	ef 92       	push	r14
     46e:	ff 92       	push	r15
     470:	0f 93       	push	r16
     472:	1f 93       	push	r17
     474:	cf 93       	push	r28
     476:	df 93       	push	r29
     478:	cd b7       	in	r28, 0x3d	; 61
     47a:	de b7       	in	r29, 0x3e	; 62
     47c:	29 97       	sbiw	r28, 0x09	; 9
     47e:	0f b6       	in	r0, 0x3f	; 63
     480:	f8 94       	cli
     482:	de bf       	out	0x3e, r29	; 62
     484:	0f be       	out	0x3f, r0	; 63
     486:	cd bf       	out	0x3d, r28	; 61
	/* Interpreter which deals with exactly one task, returns true if idle ( = the buffer is full) */
	/* feeds the state.light.buffer */
	
	if ( (state.light.write+1) % BUFFERSIZE == state.light.read ){
     488:	e0 90 f0 01 	lds	r14, 0x01F0	; 0x8001f0 <__data_end+0x72>
     48c:	f1 2c       	mov	r15, r1
     48e:	87 01       	movw	r16, r14
     490:	0f 5f       	subi	r16, 0xFF	; 255
     492:	1f 4f       	sbci	r17, 0xFF	; 255
     494:	0f 70       	andi	r16, 0x0F	; 15
     496:	10 78       	andi	r17, 0x80	; 128
     498:	11 23       	and	r17, r17
     49a:	34 f4       	brge	.+12     	; 0x4a8 <_ZN4arch11fetchBufferEv+0x54>
     49c:	01 50       	subi	r16, 0x01	; 1
     49e:	11 09       	sbc	r17, r1
     4a0:	00 6f       	ori	r16, 0xF0	; 240
     4a2:	1f 6f       	ori	r17, 0xFF	; 255
     4a4:	0f 5f       	subi	r16, 0xFF	; 255
     4a6:	1f 4f       	sbci	r17, 0xFF	; 255
     4a8:	80 91 ef 01 	lds	r24, 0x01EF	; 0x8001ef <__data_end+0x71>
     4ac:	90 e0       	ldi	r25, 0x00	; 0
     4ae:	08 17       	cp	r16, r24
     4b0:	19 07       	cpc	r17, r25
     4b2:	09 f4       	brne	.+2      	; 0x4b6 <_ZN4arch11fetchBufferEv+0x62>
     4b4:	91 c3       	rjmp	.+1826   	; 0xbd8 <_ZN4arch11fetchBufferEv+0x784>
		// no space to buffer new instructions
		return true;
	}
	
	pavrecord avrecord = &(state.light.avrecord[state.light.ptr]);
     4b6:	40 90 be 01 	lds	r4, 0x01BE	; 0x8001be <__data_end+0x40>
     4ba:	c4 2c       	mov	r12, r4
     4bc:	d1 2c       	mov	r13, r1
	pbuffer buffer = &(state.light.buffer[state.light.write]);
	
	if (avrecord->program == 0){
     4be:	f6 01       	movw	r30, r12
     4c0:	ee 0f       	add	r30, r30
     4c2:	ff 1f       	adc	r31, r31
     4c4:	ee 0f       	add	r30, r30
     4c6:	ff 1f       	adc	r31, r31
     4c8:	ee 0f       	add	r30, r30
     4ca:	ff 1f       	adc	r31, r31
     4cc:	e2 58       	subi	r30, 0x82	; 130
     4ce:	fe 4f       	sbci	r31, 0xFE	; 254
     4d0:	30 80       	ld	r3, Z
     4d2:	31 10       	cpse	r3, r1
     4d4:	20 c0       	rjmp	.+64     	; 0x516 <_ZN4arch11fetchBufferEv+0xc2>
		// realize the non ordinary 0-program function
		buffer->light = 0x0000; // set light to buffer
     4d6:	c7 01       	movw	r24, r14
     4d8:	88 0f       	add	r24, r24
     4da:	99 1f       	adc	r25, r25
     4dc:	8e 0d       	add	r24, r14
     4de:	9f 1d       	adc	r25, r15
     4e0:	82 58       	subi	r24, 0x82	; 130
     4e2:	9e 4f       	sbci	r25, 0xFE	; 254
     4e4:	fc 01       	movw	r30, r24
     4e6:	ef 5b       	subi	r30, 0xBF	; 191
     4e8:	ff 4f       	sbci	r31, 0xFF	; 255
     4ea:	11 82       	std	Z+1, r1	; 0x01
     4ec:	10 82       	st	Z, r1
		buffer->delay = 0xFF;  // set delay time after light to buffer
     4ee:	32 96       	adiw	r30, 0x02	; 2
     4f0:	8f ef       	ldi	r24, 0xFF	; 255
     4f2:	80 83       	st	Z, r24
inline void WaitOnlyBufferPrepare(){
	state.light.buffer[state.light.write].light = 0x8000;
}

inline void BufferWriteIndexerInc(){
	state.light.write = (state.light.write + 1 ) % BUFFERSIZE;
     4f4:	00 93 f0 01 	sts	0x01F0, r16	; 0x8001f0 <__data_end+0x72>
} tstate;

static tstate state;

inline void WaitOnlyBufferPrepare(){
	state.light.buffer[state.light.write].light = 0x8000;
     4f8:	11 27       	eor	r17, r17
     4fa:	f8 01       	movw	r30, r16
     4fc:	ee 0f       	add	r30, r30
     4fe:	ff 1f       	adc	r31, r31
     500:	0e 0f       	add	r16, r30
     502:	1f 1f       	adc	r17, r31
     504:	f8 01       	movw	r30, r16
     506:	e1 54       	subi	r30, 0x41	; 65
     508:	fe 4f       	sbci	r31, 0xFE	; 254
     50a:	80 e0       	ldi	r24, 0x00	; 0
     50c:	90 e8       	ldi	r25, 0x80	; 128
     50e:	91 83       	std	Z+1, r25	; 0x01
     510:	80 83       	st	Z, r24
		// realize the non ordinary 0-program function
		buffer->light = 0x0000; // set light to buffer
		buffer->delay = 0xFF;  // set delay time after light to buffer
		BufferWriteIndexerInc();
		WaitOnlyBufferPrepare();
		return false;
     512:	80 e0       	ldi	r24, 0x00	; 0
     514:	72 c3       	rjmp	.+1764   	; 0xbfa <_ZN4arch11fetchBufferEv+0x7a6>
	}
	
	uint8_t instruction[3] = {eeprom_read_byte((uint8_t*)avrecord->pc),
     516:	f6 01       	movw	r30, r12
     518:	ee 0f       	add	r30, r30
     51a:	ff 1f       	adc	r31, r31
     51c:	ee 0f       	add	r30, r30
     51e:	ff 1f       	adc	r31, r31
     520:	ee 0f       	add	r30, r30
     522:	ff 1f       	adc	r31, r31
     524:	e2 58       	subi	r30, 0x82	; 130
     526:	fe 4f       	sbci	r31, 0xFE	; 254
     528:	a1 80       	ldd	r10, Z+1	; 0x01
     52a:	b2 80       	ldd	r11, Z+2	; 0x02
     52c:	c5 01       	movw	r24, r10
     52e:	0e 94 f5 0e 	call	0x1dea	; 0x1dea <eeprom_read_byte>
     532:	58 2e       	mov	r5, r24
							  eeprom_read_byte((uint8_t*) ((avrecord->pc+1)% ADDRESSSPACE)),
     534:	35 01       	movw	r6, r10
     536:	4f ef       	ldi	r20, 0xFF	; 255
     538:	64 1a       	sub	r6, r20
     53a:	74 0a       	sbc	r7, r20
     53c:	c3 01       	movw	r24, r6
     53e:	9f 70       	andi	r25, 0x0F	; 15
     540:	0e 94 f5 0e 	call	0x1dea	; 0x1dea <eeprom_read_byte>
     544:	28 2e       	mov	r2, r24
							  eeprom_read_byte((uint8_t*) ((avrecord->pc+2)% ADDRESSSPACE))};
     546:	45 01       	movw	r8, r10
     548:	52 e0       	ldi	r21, 0x02	; 2
     54a:	85 0e       	add	r8, r21
     54c:	91 1c       	adc	r9, r1
     54e:	c4 01       	movw	r24, r8
     550:	9f 70       	andi	r25, 0x0F	; 15
     552:	0e 94 f5 0e 	call	0x1dea	; 0x1dea <eeprom_read_byte>
     556:	89 87       	std	Y+9, r24	; 0x09
	uint8_t* const reg6 = &(  avrecord->reg[  (instruction[1] & 0b00001100)>>2  ]  );
	uint8_t* const reg7 = &(  avrecord->reg[    (instruction[1] & 0b00000011)   ]  );
	
	uint8_t seg;
	
	if (instruction[0] & 0b10000000){
     558:	55 20       	and	r5, r5
     55a:	0c f0       	brlt	.+2      	; 0x55e <_ZN4arch11fetchBufferEv+0x10a>
     55c:	20 c3       	rjmp	.+1600   	; 0xb9e <_ZN4arch11fetchBufferEv+0x74a>
	
	uint8_t instruction[3] = {eeprom_read_byte((uint8_t*)avrecord->pc),
							  eeprom_read_byte((uint8_t*) ((avrecord->pc+1)% ADDRESSSPACE)),
							  eeprom_read_byte((uint8_t*) ((avrecord->pc+2)% ADDRESSSPACE))};
	
	uint8_t* const reg2 = &(  avrecord->reg[  (instruction[0] & 0b00001100)>>2  ]  );
     55e:	85 2d       	mov	r24, r5
     560:	8c 70       	andi	r24, 0x0C	; 12
     562:	90 e0       	ldi	r25, 0x00	; 0
     564:	95 95       	asr	r25
     566:	87 95       	ror	r24
     568:	95 95       	asr	r25
     56a:	87 95       	ror	r24
	uint8_t* const reg3 = &(  avrecord->reg[    (instruction[0] & 0b00000011)   ]  );
     56c:	25 2d       	mov	r18, r5
     56e:	23 70       	andi	r18, 0x03	; 3
     570:	30 e0       	ldi	r19, 0x00	; 0
	uint8_t* const reg7 = &(  avrecord->reg[    (instruction[1] & 0b00000011)   ]  );
	
	uint8_t seg;
	
	if (instruction[0] & 0b10000000){
		if (instruction[0] & 0b01000000){
     572:	56 fe       	sbrs	r5, 6
     574:	6f c0       	rjmp	.+222    	; 0x654 <_ZN4arch11fetchBufferEv+0x200>
			// ALU Register Operations: 0b11 XX R2 R3
			seg = (instruction[0] & 0b00110000)>>4;
     576:	45 2d       	mov	r20, r5
     578:	40 73       	andi	r20, 0x30	; 48
     57a:	42 95       	swap	r20
     57c:	4f 70       	andi	r20, 0x0F	; 15
			if (seg==0){
     57e:	a9 f4       	brne	.+42     	; 0x5aa <_ZN4arch11fetchBufferEv+0x156>
				//ADD
				*reg2 = *reg2 + *reg3;
     580:	b6 01       	movw	r22, r12
     582:	66 0f       	add	r22, r22
     584:	77 1f       	adc	r23, r23
     586:	66 0f       	add	r22, r22
     588:	77 1f       	adc	r23, r23
     58a:	66 0f       	add	r22, r22
     58c:	77 1f       	adc	r23, r23
     58e:	62 58       	subi	r22, 0x82	; 130
     590:	7e 4f       	sbci	r23, 0xFE	; 254
     592:	fb 01       	movw	r30, r22
     594:	e8 0f       	add	r30, r24
     596:	f9 1f       	adc	r31, r25
     598:	62 0f       	add	r22, r18
     59a:	73 1f       	adc	r23, r19
     59c:	14 81       	ldd	r17, Z+4	; 0x04
     59e:	db 01       	movw	r26, r22
     5a0:	14 96       	adiw	r26, 0x04	; 4
     5a2:	5c 91       	ld	r21, X
     5a4:	51 0f       	add	r21, r17
     5a6:	54 83       	std	Z+4, r21	; 0x04
     5a8:	31 c0       	rjmp	.+98     	; 0x60c <_ZN4arch11fetchBufferEv+0x1b8>
			}
			if (seg==1){
     5aa:	41 30       	cpi	r20, 0x01	; 1
     5ac:	b9 f4       	brne	.+46     	; 0x5dc <_ZN4arch11fetchBufferEv+0x188>
				//MUL
				*reg2 = (*reg2) * (*reg3);
     5ae:	a6 01       	movw	r20, r12
     5b0:	44 0f       	add	r20, r20
     5b2:	55 1f       	adc	r21, r21
     5b4:	44 0f       	add	r20, r20
     5b6:	55 1f       	adc	r21, r21
     5b8:	44 0f       	add	r20, r20
     5ba:	55 1f       	adc	r21, r21
     5bc:	42 58       	subi	r20, 0x82	; 130
     5be:	5e 4f       	sbci	r21, 0xFE	; 254
     5c0:	fa 01       	movw	r30, r20
     5c2:	e8 0f       	add	r30, r24
     5c4:	f9 1f       	adc	r31, r25
     5c6:	da 01       	movw	r26, r20
     5c8:	a2 0f       	add	r26, r18
     5ca:	b3 1f       	adc	r27, r19
     5cc:	94 81       	ldd	r25, Z+4	; 0x04
     5ce:	14 96       	adiw	r26, 0x04	; 4
     5d0:	8c 91       	ld	r24, X
     5d2:	98 9f       	mul	r25, r24
     5d4:	90 2d       	mov	r25, r0
     5d6:	11 24       	eor	r1, r1
     5d8:	94 83       	std	Z+4, r25	; 0x04
     5da:	2f c0       	rjmp	.+94     	; 0x63a <_ZN4arch11fetchBufferEv+0x1e6>
			}
			if (seg==2){
     5dc:	42 30       	cpi	r20, 0x02	; 2
     5de:	b1 f4       	brne	.+44     	; 0x60c <_ZN4arch11fetchBufferEv+0x1b8>
				//DIV
				*reg2 = *reg2 / *reg3;
     5e0:	a6 01       	movw	r20, r12
     5e2:	44 0f       	add	r20, r20
     5e4:	55 1f       	adc	r21, r21
     5e6:	44 0f       	add	r20, r20
     5e8:	55 1f       	adc	r21, r21
     5ea:	44 0f       	add	r20, r20
     5ec:	55 1f       	adc	r21, r21
     5ee:	42 58       	subi	r20, 0x82	; 130
     5f0:	5e 4f       	sbci	r21, 0xFE	; 254
     5f2:	fa 01       	movw	r30, r20
     5f4:	e8 0f       	add	r30, r24
     5f6:	f9 1f       	adc	r31, r25
     5f8:	da 01       	movw	r26, r20
     5fa:	a2 0f       	add	r26, r18
     5fc:	b3 1f       	adc	r27, r19
     5fe:	84 81       	ldd	r24, Z+4	; 0x04
     600:	14 96       	adiw	r26, 0x04	; 4
     602:	6c 91       	ld	r22, X
     604:	0e 94 a6 0d 	call	0x1b4c	; 0x1b4c <__udivmodqi4>
     608:	84 83       	std	Z+4, r24	; 0x04
     60a:	17 c0       	rjmp	.+46     	; 0x63a <_ZN4arch11fetchBufferEv+0x1e6>
			}
			if (seg==3){
     60c:	43 30       	cpi	r20, 0x03	; 3
     60e:	a9 f4       	brne	.+42     	; 0x63a <_ZN4arch11fetchBufferEv+0x1e6>
				//MOD
				*reg2 = *reg2 % *reg3;
     610:	a6 01       	movw	r20, r12
     612:	44 0f       	add	r20, r20
     614:	55 1f       	adc	r21, r21
     616:	44 0f       	add	r20, r20
     618:	55 1f       	adc	r21, r21
     61a:	44 0f       	add	r20, r20
     61c:	55 1f       	adc	r21, r21
     61e:	42 58       	subi	r20, 0x82	; 130
     620:	5e 4f       	sbci	r21, 0xFE	; 254
     622:	fa 01       	movw	r30, r20
     624:	e8 0f       	add	r30, r24
     626:	f9 1f       	adc	r31, r25
     628:	da 01       	movw	r26, r20
     62a:	a2 0f       	add	r26, r18
     62c:	b3 1f       	adc	r27, r19
     62e:	84 81       	ldd	r24, Z+4	; 0x04
     630:	14 96       	adiw	r26, 0x04	; 4
     632:	6c 91       	ld	r22, X
     634:	0e 94 a6 0d 	call	0x1b4c	; 0x1b4c <__udivmodqi4>
     638:	94 83       	std	Z+4, r25	; 0x04
			}
			avrecord->pc += 1; 
     63a:	f6 01       	movw	r30, r12
     63c:	ee 0f       	add	r30, r30
     63e:	ff 1f       	adc	r31, r31
     640:	ee 0f       	add	r30, r30
     642:	ff 1f       	adc	r31, r31
     644:	ee 0f       	add	r30, r30
     646:	ff 1f       	adc	r31, r31
     648:	e2 58       	subi	r30, 0x82	; 130
     64a:	fe 4f       	sbci	r31, 0xFE	; 254
     64c:	72 82       	std	Z+2, r7	; 0x02
     64e:	61 82       	std	Z+1, r6	; 0x01
	} else {
		//SET-LI: 0b0 L LL LLLL | LLLL LLLL;
		buffer->light = ((instruction[0]<<8) + instruction[1]) & ~(1<<15);
		avrecord->pc += 2;
	}
	return false;
     650:	80 e0       	ldi	r24, 0x00	; 0
     652:	d3 c2       	rjmp	.+1446   	; 0xbfa <_ZN4arch11fetchBufferEv+0x7a6>
				//MOD
				*reg2 = *reg2 % *reg3;
			}
			avrecord->pc += 1; 
		} else {
			if (instruction[0] & 0b00100000){
     654:	55 fe       	sbrs	r5, 5
     656:	e0 c1       	rjmp	.+960    	; 0xa18 <_ZN4arch11fetchBufferEv+0x5c4>
				if (instruction[0] & 0b00010000){
     658:	54 fe       	sbrs	r5, 4
     65a:	56 c1       	rjmp	.+684    	; 0x908 <_ZN4arch11fetchBufferEv+0x4b4>
					//0xB
					if (instruction[0] & 0b00001000){
     65c:	53 fe       	sbrs	r5, 3
     65e:	14 c1       	rjmp	.+552    	; 0x888 <_ZN4arch11fetchBufferEv+0x434>
						if (instruction[0] & 0b00000100){
     660:	52 fe       	sbrs	r5, 2
     662:	16 c0       	rjmp	.+44     	; 0x690 <_ZN4arch11fetchBufferEv+0x23c>
							// DEC: 0b1011 11 RR
							*reg3 -=1;
     664:	f6 01       	movw	r30, r12
     666:	ee 0f       	add	r30, r30
     668:	ff 1f       	adc	r31, r31
     66a:	ee 0f       	add	r30, r30
     66c:	ff 1f       	adc	r31, r31
     66e:	ee 0f       	add	r30, r30
     670:	ff 1f       	adc	r31, r31
     672:	e2 58       	subi	r30, 0x82	; 130
     674:	fe 4f       	sbci	r31, 0xFE	; 254
     676:	df 01       	movw	r26, r30
     678:	a2 0f       	add	r26, r18
     67a:	b3 1f       	adc	r27, r19
     67c:	14 96       	adiw	r26, 0x04	; 4
     67e:	8c 91       	ld	r24, X
     680:	14 97       	sbiw	r26, 0x04	; 4
     682:	81 50       	subi	r24, 0x01	; 1
     684:	14 96       	adiw	r26, 0x04	; 4
     686:	8c 93       	st	X, r24
							avrecord->pc += 1;
     688:	72 82       	std	Z+2, r7	; 0x02
     68a:	61 82       	std	Z+1, r6	; 0x01
	} else {
		//SET-LI: 0b0 L LL LLLL | LLLL LLLL;
		buffer->light = ((instruction[0]<<8) + instruction[1]) & ~(1<<15);
		avrecord->pc += 2;
	}
	return false;
     68c:	80 e0       	ldi	r24, 0x00	; 0
     68e:	b5 c2       	rjmp	.+1386   	; 0xbfa <_ZN4arch11fetchBufferEv+0x7a6>
						if (instruction[0] & 0b00000100){
							// DEC: 0b1011 11 RR
							*reg3 -=1;
							avrecord->pc += 1;
						} else {
							if (instruction[0] & 0b00000010){
     690:	51 fe       	sbrs	r5, 1
     692:	bd c0       	rjmp	.+378    	; 0x80e <_ZN4arch11fetchBufferEv+0x3ba>
								if (instruction[0] & 0b00000001){
     694:	50 fe       	sbrs	r5, 0
     696:	1c c0       	rjmp	.+56     	; 0x6d0 <_ZN4arch11fetchBufferEv+0x27c>
									// RET: 0xBB | MATTER
									avrecord->pc += 2;
     698:	f6 01       	movw	r30, r12
     69a:	ee 0f       	add	r30, r30
     69c:	ff 1f       	adc	r31, r31
     69e:	ee 0f       	add	r30, r30
     6a0:	ff 1f       	adc	r31, r31
     6a2:	ee 0f       	add	r30, r30
     6a4:	ff 1f       	adc	r31, r31
     6a6:	e2 58       	subi	r30, 0x82	; 130
     6a8:	fe 4f       	sbci	r31, 0xFE	; 254
     6aa:	92 82       	std	Z+2, r9	; 0x02
     6ac:	81 82       	std	Z+1, r8	; 0x01
									if (instruction[1] & (avrecord->returnMatter)){//check matter match
     6ae:	83 81       	ldd	r24, Z+3	; 0x03
     6b0:	28 22       	and	r2, r24
     6b2:	09 f4       	brne	.+2      	; 0x6b6 <_ZN4arch11fetchBufferEv+0x262>
     6b4:	93 c2       	rjmp	.+1318   	; 0xbdc <_ZN4arch11fetchBufferEv+0x788>
										if (state.light.ptr==0){
     6b6:	41 10       	cpse	r4, r1
     6b8:	04 c0       	rjmp	.+8      	; 0x6c2 <_ZN4arch11fetchBufferEv+0x26e>
											led::error(103);
     6ba:	87 e6       	ldi	r24, 0x67	; 103
     6bc:	90 e0       	ldi	r25, 0x00	; 0
     6be:	0e 94 7a 0b 	call	0x16f4	; 0x16f4 <_ZN3led5errorEj>
										}
										--state.light.ptr;
     6c2:	ee eb       	ldi	r30, 0xBE	; 190
     6c4:	f1 e0       	ldi	r31, 0x01	; 1
     6c6:	80 81       	ld	r24, Z
     6c8:	81 50       	subi	r24, 0x01	; 1
     6ca:	80 83       	st	Z, r24
	} else {
		//SET-LI: 0b0 L LL LLLL | LLLL LLLL;
		buffer->light = ((instruction[0]<<8) + instruction[1]) & ~(1<<15);
		avrecord->pc += 2;
	}
	return false;
     6cc:	80 e0       	ldi	r24, 0x00	; 0
     6ce:	95 c2       	rjmp	.+1322   	; 0xbfa <_ZN4arch11fetchBufferEv+0x7a6>
							  eeprom_read_byte((uint8_t*) ((avrecord->pc+1)% ADDRESSSPACE)),
							  eeprom_read_byte((uint8_t*) ((avrecord->pc+2)% ADDRESSSPACE))};
	
	uint8_t* const reg2 = &(  avrecord->reg[  (instruction[0] & 0b00001100)>>2  ]  );
	uint8_t* const reg3 = &(  avrecord->reg[    (instruction[0] & 0b00000011)   ]  );
	uint8_t* const reg6 = &(  avrecord->reg[  (instruction[1] & 0b00001100)>>2  ]  );
     6d0:	22 2d       	mov	r18, r2
     6d2:	2c 70       	andi	r18, 0x0C	; 12
     6d4:	30 e0       	ldi	r19, 0x00	; 0
     6d6:	35 95       	asr	r19
     6d8:	27 95       	ror	r18
     6da:	35 95       	asr	r19
     6dc:	27 95       	ror	r18
	uint8_t* const reg7 = &(  avrecord->reg[    (instruction[1] & 0b00000011)   ]  );
     6de:	82 2d       	mov	r24, r2
     6e0:	83 70       	andi	r24, 0x03	; 3
     6e2:	90 e0       	ldi	r25, 0x00	; 0
										}
										--state.light.ptr;
									}
								} else {
									// 0xBA
									seg = (instruction[1] & 0b11110000)>>4;
     6e4:	62 2d       	mov	r22, r2
     6e6:	62 95       	swap	r22
     6e8:	6f 70       	andi	r22, 0x0F	; 15
									if (seg==0){
     6ea:	91 f4       	brne	.+36     	; 0x710 <_ZN4arch11fetchBufferEv+0x2bc>
										// MOVE: 0b 1011 1010 | 0000 RD RS
										 *reg6 = *reg7; 
     6ec:	a6 01       	movw	r20, r12
     6ee:	44 0f       	add	r20, r20
     6f0:	55 1f       	adc	r21, r21
     6f2:	44 0f       	add	r20, r20
     6f4:	55 1f       	adc	r21, r21
     6f6:	44 0f       	add	r20, r20
     6f8:	55 1f       	adc	r21, r21
     6fa:	42 58       	subi	r20, 0x82	; 130
     6fc:	5e 4f       	sbci	r21, 0xFE	; 254
     6fe:	fa 01       	movw	r30, r20
     700:	e8 0f       	add	r30, r24
     702:	f9 1f       	adc	r31, r25
     704:	74 81       	ldd	r23, Z+4	; 0x04
     706:	fa 01       	movw	r30, r20
     708:	e2 0f       	add	r30, r18
     70a:	f3 1f       	adc	r31, r19
     70c:	74 83       	std	Z+4, r23	; 0x04
     70e:	45 c0       	rjmp	.+138    	; 0x79a <_ZN4arch11fetchBufferEv+0x346>
									}
									if (seg==1){
     710:	61 30       	cpi	r22, 0x01	; 1
     712:	29 f5       	brne	.+74     	; 0x75e <_ZN4arch11fetchBufferEv+0x30a>
										//SET-LR: 0b 1011 1010 | 0001 RH RL
										buffer->light = ((*reg6<<8) + *reg7) & ~(1<<15);
     714:	f7 01       	movw	r30, r14
     716:	ee 0f       	add	r30, r30
     718:	ff 1f       	adc	r31, r31
     71a:	ee 0d       	add	r30, r14
     71c:	ff 1d       	adc	r31, r15
     71e:	e1 54       	subi	r30, 0x41	; 65
     720:	fe 4f       	sbci	r31, 0xFE	; 254
     722:	a6 01       	movw	r20, r12
     724:	44 0f       	add	r20, r20
     726:	55 1f       	adc	r21, r21
     728:	44 0f       	add	r20, r20
     72a:	55 1f       	adc	r21, r21
     72c:	44 0f       	add	r20, r20
     72e:	55 1f       	adc	r21, r21
     730:	42 58       	subi	r20, 0x82	; 130
     732:	5e 4f       	sbci	r21, 0xFE	; 254
     734:	da 01       	movw	r26, r20
     736:	a2 0f       	add	r26, r18
     738:	b3 1f       	adc	r27, r19
     73a:	14 96       	adiw	r26, 0x04	; 4
     73c:	2c 91       	ld	r18, X
     73e:	30 e0       	ldi	r19, 0x00	; 0
     740:	32 2f       	mov	r19, r18
     742:	22 27       	eor	r18, r18
     744:	da 01       	movw	r26, r20
     746:	a8 0f       	add	r26, r24
     748:	b9 1f       	adc	r27, r25
     74a:	14 96       	adiw	r26, 0x04	; 4
     74c:	8c 91       	ld	r24, X
     74e:	79 01       	movw	r14, r18
     750:	e8 0e       	add	r14, r24
     752:	f1 1c       	adc	r15, r1
     754:	c7 01       	movw	r24, r14
     756:	9f 77       	andi	r25, 0x7F	; 127
     758:	91 83       	std	Z+1, r25	; 0x01
     75a:	80 83       	st	Z, r24
     75c:	35 c0       	rjmp	.+106    	; 0x7c8 <_ZN4arch11fetchBufferEv+0x374>
									}
									if (seg==2){
     75e:	62 30       	cpi	r22, 0x02	; 2
     760:	e1 f4       	brne	.+56     	; 0x79a <_ZN4arch11fetchBufferEv+0x346>
										//SWAP: 0b 1011 1010 | 0010 RR RR
										seg = *reg6;
     762:	d6 01       	movw	r26, r12
     764:	aa 0f       	add	r26, r26
     766:	bb 1f       	adc	r27, r27
     768:	aa 0f       	add	r26, r26
     76a:	bb 1f       	adc	r27, r27
     76c:	aa 0f       	add	r26, r26
     76e:	bb 1f       	adc	r27, r27
     770:	a2 58       	subi	r26, 0x82	; 130
     772:	be 4f       	sbci	r27, 0xFE	; 254
     774:	ad 01       	movw	r20, r26
     776:	42 0f       	add	r20, r18
     778:	53 1f       	adc	r21, r19
     77a:	fa 01       	movw	r30, r20
     77c:	24 81       	ldd	r18, Z+4	; 0x04
										*reg6 = *reg7;
     77e:	8a 0f       	add	r24, r26
     780:	9b 1f       	adc	r25, r27
     782:	fc 01       	movw	r30, r24
     784:	34 81       	ldd	r19, Z+4	; 0x04
     786:	fa 01       	movw	r30, r20
     788:	34 83       	std	Z+4, r19	; 0x04
										*reg7 = seg;
     78a:	fc 01       	movw	r30, r24
     78c:	24 83       	std	Z+4, r18	; 0x04
									}
									if (seg==3){
										//NEG: 0b 1011 1010  | 0011 XX RR
										*reg7 = - (*reg7);//
									}
									avrecord->pc += 2;
     78e:	12 96       	adiw	r26, 0x02	; 2
     790:	9c 92       	st	X, r9
     792:	8e 92       	st	-X, r8
     794:	11 97       	sbiw	r26, 0x01	; 1
	} else {
		//SET-LI: 0b0 L LL LLLL | LLLL LLLL;
		buffer->light = ((instruction[0]<<8) + instruction[1]) & ~(1<<15);
		avrecord->pc += 2;
	}
	return false;
     796:	80 e0       	ldi	r24, 0x00	; 0
     798:	30 c2       	rjmp	.+1120   	; 0xbfa <_ZN4arch11fetchBufferEv+0x7a6>
										seg = *reg6;
										*reg6 = *reg7;
										*reg7 = seg;
										seg = 2;
									}
									if (seg==3){
     79a:	63 30       	cpi	r22, 0x03	; 3
     79c:	a9 f4       	brne	.+42     	; 0x7c8 <_ZN4arch11fetchBufferEv+0x374>
										//NEG: 0b 1011 1010  | 0011 XX RR
										*reg7 = - (*reg7);//
     79e:	d6 01       	movw	r26, r12
     7a0:	aa 0f       	add	r26, r26
     7a2:	bb 1f       	adc	r27, r27
     7a4:	aa 0f       	add	r26, r26
     7a6:	bb 1f       	adc	r27, r27
     7a8:	aa 0f       	add	r26, r26
     7aa:	bb 1f       	adc	r27, r27
     7ac:	a2 58       	subi	r26, 0x82	; 130
     7ae:	be 4f       	sbci	r27, 0xFE	; 254
     7b0:	fd 01       	movw	r30, r26
     7b2:	e8 0f       	add	r30, r24
     7b4:	f9 1f       	adc	r31, r25
     7b6:	84 81       	ldd	r24, Z+4	; 0x04
     7b8:	81 95       	neg	r24
     7ba:	84 83       	std	Z+4, r24	; 0x04
									}
									avrecord->pc += 2;
     7bc:	12 96       	adiw	r26, 0x02	; 2
     7be:	9c 92       	st	X, r9
     7c0:	8e 92       	st	-X, r8
     7c2:	11 97       	sbiw	r26, 0x01	; 1
	} else {
		//SET-LI: 0b0 L LL LLLL | LLLL LLLL;
		buffer->light = ((instruction[0]<<8) + instruction[1]) & ~(1<<15);
		avrecord->pc += 2;
	}
	return false;
     7c4:	80 e0       	ldi	r24, 0x00	; 0
     7c6:	19 c2       	rjmp	.+1074   	; 0xbfa <_ZN4arch11fetchBufferEv+0x7a6>
									}
									if (seg==3){
										//NEG: 0b 1011 1010  | 0011 XX RR
										*reg7 = - (*reg7);//
									}
									avrecord->pc += 2;
     7c8:	f6 01       	movw	r30, r12
     7ca:	ee 0f       	add	r30, r30
     7cc:	ff 1f       	adc	r31, r31
     7ce:	ee 0f       	add	r30, r30
     7d0:	ff 1f       	adc	r31, r31
     7d2:	ee 0f       	add	r30, r30
     7d4:	ff 1f       	adc	r31, r31
     7d6:	e2 58       	subi	r30, 0x82	; 130
     7d8:	fe 4f       	sbci	r31, 0xFE	; 254
     7da:	92 82       	std	Z+2, r9	; 0x02
     7dc:	81 82       	std	Z+1, r8	; 0x01
									if (seg==4){
     7de:	64 30       	cpi	r22, 0x04	; 4
     7e0:	09 f0       	breq	.+2      	; 0x7e4 <_ZN4arch11fetchBufferEv+0x390>
     7e2:	fe c1       	rjmp	.+1020   	; 0xbe0 <_ZN4arch11fetchBufferEv+0x78c>
     7e4:	1c 82       	std	Y+4, r1	; 0x04
     7e6:	ae 01       	movw	r20, r28
     7e8:	4c 5f       	subi	r20, 0xFC	; 252
     7ea:	5f 4f       	sbci	r21, 0xFF	; 255
     7ec:	60 e0       	ldi	r22, 0x00	; 0
     7ee:	83 2d       	mov	r24, r3
     7f0:	e8 dc       	rcall	.-1584   	; 0x1c2 <_ZN4arch17EEPAddressHelper_EhhRKb>
										//RESET: 0b 1011 1010 | 0100 XXXX
										avrecord->pc = arch::getAddress(avrecord->program,0);
     7f2:	f6 01       	movw	r30, r12
     7f4:	ee 0f       	add	r30, r30
     7f6:	ff 1f       	adc	r31, r31
     7f8:	ee 0f       	add	r30, r30
     7fa:	ff 1f       	adc	r31, r31
     7fc:	ee 0f       	add	r30, r30
     7fe:	ff 1f       	adc	r31, r31
     800:	e2 58       	subi	r30, 0x82	; 130
     802:	fe 4f       	sbci	r31, 0xFE	; 254
     804:	92 83       	std	Z+2, r25	; 0x02
     806:	81 83       	std	Z+1, r24	; 0x01
										arch::programHeaderInterpreter();
     808:	a8 dd       	rcall	.-1200   	; 0x35a <_ZN4arch24programHeaderInterpreterEv>
	} else {
		//SET-LI: 0b0 L LL LLLL | LLLL LLLL;
		buffer->light = ((instruction[0]<<8) + instruction[1]) & ~(1<<15);
		avrecord->pc += 2;
	}
	return false;
     80a:	80 e0       	ldi	r24, 0x00	; 0
     80c:	f6 c1       	rjmp	.+1004   	; 0xbfa <_ZN4arch11fetchBufferEv+0x7a6>
										avrecord->pc = arch::getAddress(avrecord->program,0);
										arch::programHeaderInterpreter();
									}
								}
							} else {
								avrecord->pc += 2;
     80e:	f6 01       	movw	r30, r12
     810:	ee 0f       	add	r30, r30
     812:	ff 1f       	adc	r31, r31
     814:	ee 0f       	add	r30, r30
     816:	ff 1f       	adc	r31, r31
     818:	ee 0f       	add	r30, r30
     81a:	ff 1f       	adc	r31, r31
     81c:	e2 58       	subi	r30, 0x82	; 130
     81e:	fe 4f       	sbci	r31, 0xFE	; 254
     820:	92 82       	std	Z+2, r9	; 0x02
     822:	81 82       	std	Z+1, r8	; 0x01
								if (instruction[0] & 0b00000001){
     824:	50 fe       	sbrs	r5, 0
     826:	19 c0       	rjmp	.+50     	; 0x85a <_ZN4arch11fetchBufferEv+0x406>
									//WAIT-I: 0xB9 | Immediate
									buffer->delay = instruction[1];
     828:	f7 01       	movw	r30, r14
     82a:	ee 0f       	add	r30, r30
     82c:	ff 1f       	adc	r31, r31
     82e:	ee 0d       	add	r30, r14
     830:	ff 1d       	adc	r31, r15
     832:	ef 53       	subi	r30, 0x3F	; 63
     834:	fe 4f       	sbci	r31, 0xFE	; 254
     836:	20 82       	st	Z, r2
inline void WaitOnlyBufferPrepare(){
	state.light.buffer[state.light.write].light = 0x8000;
}

inline void BufferWriteIndexerInc(){
	state.light.write = (state.light.write + 1 ) % BUFFERSIZE;
     838:	00 93 f0 01 	sts	0x01F0, r16	; 0x8001f0 <__data_end+0x72>
} tstate;

static tstate state;

inline void WaitOnlyBufferPrepare(){
	state.light.buffer[state.light.write].light = 0x8000;
     83c:	11 27       	eor	r17, r17
     83e:	f8 01       	movw	r30, r16
     840:	ee 0f       	add	r30, r30
     842:	ff 1f       	adc	r31, r31
     844:	0e 0f       	add	r16, r30
     846:	1f 1f       	adc	r17, r31
     848:	f8 01       	movw	r30, r16
     84a:	e1 54       	subi	r30, 0x41	; 65
     84c:	fe 4f       	sbci	r31, 0xFE	; 254
     84e:	80 e0       	ldi	r24, 0x00	; 0
     850:	90 e8       	ldi	r25, 0x80	; 128
     852:	91 83       	std	Z+1, r25	; 0x01
     854:	80 83       	st	Z, r24
	} else {
		//SET-LI: 0b0 L LL LLLL | LLLL LLLL;
		buffer->light = ((instruction[0]<<8) + instruction[1]) & ~(1<<15);
		avrecord->pc += 2;
	}
	return false;
     856:	80 e0       	ldi	r24, 0x00	; 0
     858:	d0 c1       	rjmp	.+928    	; 0xbfa <_ZN4arch11fetchBufferEv+0x7a6>
									buffer->delay = instruction[1];
									BufferWriteIndexerInc();
									WaitOnlyBufferPrepare();									
								} else {
									//JMP: 0xB8 | local address
									if (instruction[1] == 0) {
     85a:	22 20       	and	r2, r2
     85c:	09 f4       	brne	.+2      	; 0x860 <_ZN4arch11fetchBufferEv+0x40c>
     85e:	c2 c1       	rjmp	.+900    	; 0xbe4 <_ZN4arch11fetchBufferEv+0x790>
     860:	1b 82       	std	Y+3, r1	; 0x03
     862:	ae 01       	movw	r20, r28
     864:	4d 5f       	subi	r20, 0xFD	; 253
     866:	5f 4f       	sbci	r21, 0xFF	; 255
     868:	62 2d       	mov	r22, r2
     86a:	83 2d       	mov	r24, r3
     86c:	aa dc       	rcall	.-1708   	; 0x1c2 <_ZN4arch17EEPAddressHelper_EhhRKb>
										//### throw error: you should use reset instead
									} else {
										avrecord->pc = arch::getAddress(avrecord->program,instruction[1]);
     86e:	f6 01       	movw	r30, r12
     870:	ee 0f       	add	r30, r30
     872:	ff 1f       	adc	r31, r31
     874:	ee 0f       	add	r30, r30
     876:	ff 1f       	adc	r31, r31
     878:	ee 0f       	add	r30, r30
     87a:	ff 1f       	adc	r31, r31
     87c:	e2 58       	subi	r30, 0x82	; 130
     87e:	fe 4f       	sbci	r31, 0xFE	; 254
     880:	92 83       	std	Z+2, r25	; 0x02
     882:	81 83       	std	Z+1, r24	; 0x01
	} else {
		//SET-LI: 0b0 L LL LLLL | LLLL LLLL;
		buffer->light = ((instruction[0]<<8) + instruction[1]) & ~(1<<15);
		avrecord->pc += 2;
	}
	return false;
     884:	80 e0       	ldi	r24, 0x00	; 0
     886:	b9 c1       	rjmp	.+882    	; 0xbfa <_ZN4arch11fetchBufferEv+0x7a6>
									}
								}
							}
						}
					} else {
						if (instruction[0] & 0b00000100){
     888:	52 fe       	sbrs	r5, 2
     88a:	2c c0       	rjmp	.+88     	; 0x8e4 <_ZN4arch11fetchBufferEv+0x490>
							// WAIT-R: 0b1011 01 RR
							buffer->delay = *reg3;
     88c:	f7 01       	movw	r30, r14
     88e:	ee 0f       	add	r30, r30
     890:	ff 1f       	adc	r31, r31
     892:	ee 0d       	add	r30, r14
     894:	ff 1d       	adc	r31, r15
     896:	af 01       	movw	r20, r30
     898:	4f 53       	subi	r20, 0x3F	; 63
     89a:	5e 4f       	sbci	r21, 0xFE	; 254
     89c:	d6 01       	movw	r26, r12
     89e:	aa 0f       	add	r26, r26
     8a0:	bb 1f       	adc	r27, r27
     8a2:	aa 0f       	add	r26, r26
     8a4:	bb 1f       	adc	r27, r27
     8a6:	aa 0f       	add	r26, r26
     8a8:	bb 1f       	adc	r27, r27
     8aa:	a2 58       	subi	r26, 0x82	; 130
     8ac:	be 4f       	sbci	r27, 0xFE	; 254
     8ae:	2a 0f       	add	r18, r26
     8b0:	3b 1f       	adc	r19, r27
     8b2:	f9 01       	movw	r30, r18
     8b4:	84 81       	ldd	r24, Z+4	; 0x04
     8b6:	fa 01       	movw	r30, r20
     8b8:	80 83       	st	Z, r24
inline void WaitOnlyBufferPrepare(){
	state.light.buffer[state.light.write].light = 0x8000;
}

inline void BufferWriteIndexerInc(){
	state.light.write = (state.light.write + 1 ) % BUFFERSIZE;
     8ba:	00 93 f0 01 	sts	0x01F0, r16	; 0x8001f0 <__data_end+0x72>
} tstate;

static tstate state;

inline void WaitOnlyBufferPrepare(){
	state.light.buffer[state.light.write].light = 0x8000;
     8be:	11 27       	eor	r17, r17
     8c0:	f8 01       	movw	r30, r16
     8c2:	ee 0f       	add	r30, r30
     8c4:	ff 1f       	adc	r31, r31
     8c6:	0e 0f       	add	r16, r30
     8c8:	1f 1f       	adc	r17, r31
     8ca:	f8 01       	movw	r30, r16
     8cc:	e1 54       	subi	r30, 0x41	; 65
     8ce:	fe 4f       	sbci	r31, 0xFE	; 254
     8d0:	80 e0       	ldi	r24, 0x00	; 0
     8d2:	90 e8       	ldi	r25, 0x80	; 128
     8d4:	91 83       	std	Z+1, r25	; 0x01
     8d6:	80 83       	st	Z, r24
						if (instruction[0] & 0b00000100){
							// WAIT-R: 0b1011 01 RR
							buffer->delay = *reg3;
							BufferWriteIndexerInc();
							WaitOnlyBufferPrepare();
							avrecord->pc += 1;
     8d8:	12 96       	adiw	r26, 0x02	; 2
     8da:	7c 92       	st	X, r7
     8dc:	6e 92       	st	-X, r6
     8de:	11 97       	sbiw	r26, 0x01	; 1
	} else {
		//SET-LI: 0b0 L LL LLLL | LLLL LLLL;
		buffer->light = ((instruction[0]<<8) + instruction[1]) & ~(1<<15);
		avrecord->pc += 2;
	}
	return false;
     8e0:	80 e0       	ldi	r24, 0x00	; 0
     8e2:	8b c1       	rjmp	.+790    	; 0xbfa <_ZN4arch11fetchBufferEv+0x7a6>
							BufferWriteIndexerInc();
							WaitOnlyBufferPrepare();
							avrecord->pc += 1;
						} else {
							//SET-RI: 0b1011 00 RR | Immediate
							*reg3 = instruction[1];
     8e4:	f6 01       	movw	r30, r12
     8e6:	ee 0f       	add	r30, r30
     8e8:	ff 1f       	adc	r31, r31
     8ea:	ee 0f       	add	r30, r30
     8ec:	ff 1f       	adc	r31, r31
     8ee:	ee 0f       	add	r30, r30
     8f0:	ff 1f       	adc	r31, r31
     8f2:	e2 58       	subi	r30, 0x82	; 130
     8f4:	fe 4f       	sbci	r31, 0xFE	; 254
     8f6:	df 01       	movw	r26, r30
     8f8:	a2 0f       	add	r26, r18
     8fa:	b3 1f       	adc	r27, r19
     8fc:	14 96       	adiw	r26, 0x04	; 4
     8fe:	2c 92       	st	X, r2
							avrecord->pc += 2;
     900:	92 82       	std	Z+2, r9	; 0x02
     902:	81 82       	std	Z+1, r8	; 0x01
	} else {
		//SET-LI: 0b0 L LL LLLL | LLLL LLLL;
		buffer->light = ((instruction[0]<<8) + instruction[1]) & ~(1<<15);
		avrecord->pc += 2;
	}
	return false;
     904:	80 e0       	ldi	r24, 0x00	; 0
     906:	79 c1       	rjmp	.+754    	; 0xbfa <_ZN4arch11fetchBufferEv+0x7a6>
					// QQQQ:		Q==0	->		immediate	->		(8 bit immediate)
					//				Q==1	->		register	->		(XX CC RD RS)	:	RS .. source register; write back in RD iff CC==11
					// this version is always without writing BACK !!!!!!!!!!!!!!!!!!!!!!!!!!!!!!!!!
					// iff the return matter is 0 call will empty the avrecord and start from a blanc list again
					
					uint8_t matter = eeprom_read_byte((uint8_t*) ((avrecord->pc+3)% ADDRESSSPACE));
     908:	c5 01       	movw	r24, r10
     90a:	03 96       	adiw	r24, 0x03	; 3
     90c:	9f 70       	andi	r25, 0x0F	; 15
     90e:	0e 94 f5 0e 	call	0x1dea	; 0x1dea <eeprom_read_byte>
     912:	f8 2e       	mov	r15, r24
					
					if ((state.light.ptr != RECURSIONDEPTH-1) || (matter == 0)){
     914:	f7 e0       	ldi	r31, 0x07	; 7
     916:	4f 12       	cpse	r4, r31
     918:	02 c0       	rjmp	.+4      	; 0x91e <_ZN4arch11fetchBufferEv+0x4ca>
     91a:	81 11       	cpse	r24, r1
     91c:	65 c1       	rjmp	.+714    	; 0xbe8 <_ZN4arch11fetchBufferEv+0x794>
						
						// fetch more instructions
						// 5x fetching: % is not necessary because programmer should provide presence of the parameters <<<<<<< catch this as an error and make all lights off or such a thing
						uint8_t values[4] = {	eeprom_read_byte((uint8_t*) ((avrecord->pc+4)% ADDRESSSPACE)),
     91e:	c5 01       	movw	r24, r10
     920:	04 96       	adiw	r24, 0x04	; 4
     922:	9f 70       	andi	r25, 0x0F	; 15
     924:	0e 94 f5 0e 	call	0x1dea	; 0x1dea <eeprom_read_byte>
												eeprom_read_byte((uint8_t*) ((avrecord->pc+5)% ADDRESSSPACE)),
												eeprom_read_byte((uint8_t*) ((avrecord->pc+6)% ADDRESSSPACE)),
												eeprom_read_byte((uint8_t*) ((avrecord->pc+7)% ADDRESSSPACE))};
     928:	8d 83       	std	Y+5, r24	; 0x05
					if ((state.light.ptr != RECURSIONDEPTH-1) || (matter == 0)){
						
						// fetch more instructions
						// 5x fetching: % is not necessary because programmer should provide presence of the parameters <<<<<<< catch this as an error and make all lights off or such a thing
						uint8_t values[4] = {	eeprom_read_byte((uint8_t*) ((avrecord->pc+4)% ADDRESSSPACE)),
												eeprom_read_byte((uint8_t*) ((avrecord->pc+5)% ADDRESSSPACE)),
     92a:	c5 01       	movw	r24, r10
     92c:	05 96       	adiw	r24, 0x05	; 5
     92e:	9f 70       	andi	r25, 0x0F	; 15
     930:	0e 94 f5 0e 	call	0x1dea	; 0x1dea <eeprom_read_byte>
												eeprom_read_byte((uint8_t*) ((avrecord->pc+6)% ADDRESSSPACE)),
												eeprom_read_byte((uint8_t*) ((avrecord->pc+7)% ADDRESSSPACE))};
     934:	8e 83       	std	Y+6, r24	; 0x06
						
						// fetch more instructions
						// 5x fetching: % is not necessary because programmer should provide presence of the parameters <<<<<<< catch this as an error and make all lights off or such a thing
						uint8_t values[4] = {	eeprom_read_byte((uint8_t*) ((avrecord->pc+4)% ADDRESSSPACE)),
												eeprom_read_byte((uint8_t*) ((avrecord->pc+5)% ADDRESSSPACE)),
												eeprom_read_byte((uint8_t*) ((avrecord->pc+6)% ADDRESSSPACE)),
     936:	c5 01       	movw	r24, r10
     938:	06 96       	adiw	r24, 0x06	; 6
     93a:	9f 70       	andi	r25, 0x0F	; 15
     93c:	0e 94 f5 0e 	call	0x1dea	; 0x1dea <eeprom_read_byte>
												eeprom_read_byte((uint8_t*) ((avrecord->pc+7)% ADDRESSSPACE))};
     940:	8f 83       	std	Y+7, r24	; 0x07
     942:	c5 01       	movw	r24, r10
     944:	07 96       	adiw	r24, 0x07	; 7
     946:	9f 70       	andi	r25, 0x0F	; 15
     948:	0e 94 f5 0e 	call	0x1dea	; 0x1dea <eeprom_read_byte>
     94c:	88 87       	std	Y+8, r24	; 0x08
						
						avrecord->pc += 8; //<<<< catch if user makes such code which will make me an eeprom read because of the pc which is out of range / ADRESSSpace
     94e:	f6 01       	movw	r30, r12
     950:	ee 0f       	add	r30, r30
     952:	ff 1f       	adc	r31, r31
     954:	ee 0f       	add	r30, r30
     956:	ff 1f       	adc	r31, r31
     958:	ee 0f       	add	r30, r30
     95a:	ff 1f       	adc	r31, r31
     95c:	e2 58       	subi	r30, 0x82	; 130
     95e:	fe 4f       	sbci	r31, 0xFE	; 254
     960:	48 e0       	ldi	r20, 0x08	; 8
     962:	a4 0e       	add	r10, r20
     964:	b1 1c       	adc	r11, r1
     966:	b2 82       	std	Z+2, r11	; 0x02
     968:	a1 82       	std	Z+1, r10	; 0x01
						state.light.ptr++;
						if (matter == 0) state.light.ptr = 0;
     96a:	ff 20       	and	r15, r15
     96c:	21 f0       	breq	.+8      	; 0x976 <_ZN4arch11fetchBufferEv+0x522>
												eeprom_read_byte((uint8_t*) ((avrecord->pc+5)% ADDRESSSPACE)),
												eeprom_read_byte((uint8_t*) ((avrecord->pc+6)% ADDRESSSPACE)),
												eeprom_read_byte((uint8_t*) ((avrecord->pc+7)% ADDRESSSPACE))};
						
						avrecord->pc += 8; //<<<< catch if user makes such code which will make me an eeprom read because of the pc which is out of range / ADRESSSpace
						state.light.ptr++;
     96e:	43 94       	inc	r4
     970:	40 92 be 01 	sts	0x01BE, r4	; 0x8001be <__data_end+0x40>
     974:	02 c0       	rjmp	.+4      	; 0x97a <_ZN4arch11fetchBufferEv+0x526>
						if (matter == 0) state.light.ptr = 0;
     976:	10 92 be 01 	sts	0x01BE, r1	; 0x8001be <__data_end+0x40>
						
						pavrecord av2 = &(state.light.avrecord[state.light.ptr]);
     97a:	a0 91 be 01 	lds	r26, 0x01BE	; 0x8001be <__data_end+0x40>
     97e:	0a 2f       	mov	r16, r26
     980:	10 e0       	ldi	r17, 0x00	; 0
     982:	1a 82       	std	Y+2, r1	; 0x02
     984:	ae 01       	movw	r20, r28
     986:	4e 5f       	subi	r20, 0xFE	; 254
     988:	5f 4f       	sbci	r21, 0xFF	; 255
     98a:	69 85       	ldd	r22, Y+9	; 0x09
     98c:	82 2d       	mov	r24, r2
     98e:	19 dc       	rcall	.-1998   	; 0x1c2 <_ZN4arch17EEPAddressHelper_EhhRKb>
						av2->pc = arch::getAddress(instruction[1],instruction[2]);
     990:	d8 01       	movw	r26, r16
     992:	aa 0f       	add	r26, r26
     994:	bb 1f       	adc	r27, r27
     996:	aa 0f       	add	r26, r26
     998:	bb 1f       	adc	r27, r27
     99a:	aa 0f       	add	r26, r26
     99c:	bb 1f       	adc	r27, r27
     99e:	fd 01       	movw	r30, r26
     9a0:	e2 58       	subi	r30, 0x82	; 130
     9a2:	fe 4f       	sbci	r31, 0xFE	; 254
     9a4:	92 83       	std	Z+2, r25	; 0x02
     9a6:	81 83       	std	Z+1, r24	; 0x01
						av2->program = instruction[1];
     9a8:	20 82       	st	Z, r2
						av2->returnMatter = matter;
     9aa:	f3 82       	std	Z+3, r15	; 0x03
     9ac:	cd 01       	movw	r24, r26
     9ae:	8e 57       	subi	r24, 0x7E	; 126
     9b0:	9e 4f       	sbci	r25, 0xFE	; 254
     9b2:	5c 01       	movw	r10, r24
     9b4:	fe 01       	movw	r30, r28
     9b6:	35 96       	adiw	r30, 0x05	; 5
     9b8:	ae 01       	movw	r20, r28
     9ba:	47 5f       	subi	r20, 0xF7	; 247
     9bc:	5f 4f       	sbci	r21, 0xFF	; 255
     9be:	83 e0       	ldi	r24, 0x03	; 3
     9c0:	90 e0       	ldi	r25, 0x00	; 0
						for(uint8_t i = 0; i<4; ++i){
							av2->reg[i] = (instruction[0] & (1<<(3-i))) 	? /*reg*/			avrecord->reg[values[i] & 0b11]
																			: /*immediate*/		values[i]
																			;
     9c2:	65 2d       	mov	r22, r5
     9c4:	70 e0       	ldi	r23, 0x00	; 0
     9c6:	86 01       	movw	r16, r12
     9c8:	00 0f       	add	r16, r16
     9ca:	11 1f       	adc	r17, r17
     9cc:	00 0f       	add	r16, r16
     9ce:	11 1f       	adc	r17, r17
     9d0:	00 0f       	add	r16, r16
     9d2:	11 1f       	adc	r17, r17
     9d4:	02 58       	subi	r16, 0x82	; 130
     9d6:	1e 4f       	sbci	r17, 0xFE	; 254
     9d8:	9b 01       	movw	r18, r22
     9da:	08 2e       	mov	r0, r24
     9dc:	02 c0       	rjmp	.+4      	; 0x9e2 <_ZN4arch11fetchBufferEv+0x58e>
     9de:	35 95       	asr	r19
     9e0:	27 95       	ror	r18
     9e2:	0a 94       	dec	r0
     9e4:	e2 f7       	brpl	.-8      	; 0x9de <_ZN4arch11fetchBufferEv+0x58a>
     9e6:	20 ff       	sbrs	r18, 0
     9e8:	08 c0       	rjmp	.+16     	; 0x9fa <_ZN4arch11fetchBufferEv+0x5a6>
						pavrecord av2 = &(state.light.avrecord[state.light.ptr]);
						av2->pc = arch::getAddress(instruction[1],instruction[2]);
						av2->program = instruction[1];
						av2->returnMatter = matter;
						for(uint8_t i = 0; i<4; ++i){
							av2->reg[i] = (instruction[0] & (1<<(3-i))) 	? /*reg*/			avrecord->reg[values[i] & 0b11]
     9ea:	20 81       	ld	r18, Z
     9ec:	23 70       	andi	r18, 0x03	; 3
																			: /*immediate*/		values[i]
																			;
     9ee:	d8 01       	movw	r26, r16
     9f0:	a2 0f       	add	r26, r18
     9f2:	b1 1d       	adc	r27, r1
     9f4:	14 96       	adiw	r26, 0x04	; 4
     9f6:	2c 91       	ld	r18, X
     9f8:	01 c0       	rjmp	.+2      	; 0x9fc <_ZN4arch11fetchBufferEv+0x5a8>
     9fa:	20 81       	ld	r18, Z
     9fc:	d5 01       	movw	r26, r10
     9fe:	2d 93       	st	X+, r18
     a00:	5d 01       	movw	r10, r26
     a02:	01 97       	sbiw	r24, 0x01	; 1
     a04:	31 96       	adiw	r30, 0x01	; 1
						
						pavrecord av2 = &(state.light.avrecord[state.light.ptr]);
						av2->pc = arch::getAddress(instruction[1],instruction[2]);
						av2->program = instruction[1];
						av2->returnMatter = matter;
						for(uint8_t i = 0; i<4; ++i){
     a06:	e4 17       	cp	r30, r20
     a08:	f5 07       	cpc	r31, r21
     a0a:	31 f7       	brne	.-52     	; 0x9d8 <_ZN4arch11fetchBufferEv+0x584>
							av2->reg[i] = (instruction[0] & (1<<(3-i))) 	? /*reg*/			avrecord->reg[values[i] & 0b11]
																			: /*immediate*/		values[i]
																			;
						}
						// if called program header:
						if (instruction[2] == 0) {
     a0c:	e9 84       	ldd	r14, Y+9	; 0x09
     a0e:	e1 10       	cpse	r14, r1
     a10:	01 c0       	rjmp	.+2      	; 0xa14 <_ZN4arch11fetchBufferEv+0x5c0>
							arch::programHeaderInterpreter();
     a12:	a3 dc       	rcall	.-1722   	; 0x35a <_ZN4arch24programHeaderInterpreterEv>
	} else {
		//SET-LI: 0b0 L LL LLLL | LLLL LLLL;
		buffer->light = ((instruction[0]<<8) + instruction[1]) & ~(1<<15);
		avrecord->pc += 2;
	}
	return false;
     a14:	80 e0       	ldi	r24, 0x00	; 0
     a16:	f1 c0       	rjmp	.+482    	; 0xbfa <_ZN4arch11fetchBufferEv+0x7a6>
						//throw little error <<<<
					}
				}
			} else {
				seg = (instruction[0] & 0b00001100)>>2;
				if (instruction[0] & 0b00010000){
     a18:	54 fe       	sbrs	r5, 4
     a1a:	59 c0       	rjmp	.+178    	; 0xace <_ZN4arch11fetchBufferEv+0x67a>
					// ALU IMMEDIATE Operations: 0x1001 XX RR | Immediate
					avrecord->pc += 2;
     a1c:	f6 01       	movw	r30, r12
     a1e:	ee 0f       	add	r30, r30
     a20:	ff 1f       	adc	r31, r31
     a22:	ee 0f       	add	r30, r30
     a24:	ff 1f       	adc	r31, r31
     a26:	ee 0f       	add	r30, r30
     a28:	ff 1f       	adc	r31, r31
     a2a:	e2 58       	subi	r30, 0x82	; 130
     a2c:	fe 4f       	sbci	r31, 0xFE	; 254
     a2e:	92 82       	std	Z+2, r9	; 0x02
     a30:	81 82       	std	Z+1, r8	; 0x01
					if (seg==0){
     a32:	81 11       	cpse	r24, r1
     a34:	0f c0       	rjmp	.+30     	; 0xa54 <_ZN4arch11fetchBufferEv+0x600>
						// ADD-I
						*reg3 += instruction[1];
     a36:	f6 01       	movw	r30, r12
     a38:	ee 0f       	add	r30, r30
     a3a:	ff 1f       	adc	r31, r31
     a3c:	ee 0f       	add	r30, r30
     a3e:	ff 1f       	adc	r31, r31
     a40:	ee 0f       	add	r30, r30
     a42:	ff 1f       	adc	r31, r31
     a44:	e2 58       	subi	r30, 0x82	; 130
     a46:	fe 4f       	sbci	r31, 0xFE	; 254
     a48:	e2 0f       	add	r30, r18
     a4a:	f3 1f       	adc	r31, r19
     a4c:	94 81       	ldd	r25, Z+4	; 0x04
     a4e:	92 0d       	add	r25, r2
     a50:	94 83       	std	Z+4, r25	; 0x04
     a52:	28 c0       	rjmp	.+80     	; 0xaa4 <_ZN4arch11fetchBufferEv+0x650>
					}
					if (seg==1){
     a54:	81 30       	cpi	r24, 0x01	; 1
     a56:	91 f4       	brne	.+36     	; 0xa7c <_ZN4arch11fetchBufferEv+0x628>
						// MUL-I
						*reg3 *= instruction[1];
     a58:	f6 01       	movw	r30, r12
     a5a:	ee 0f       	add	r30, r30
     a5c:	ff 1f       	adc	r31, r31
     a5e:	ee 0f       	add	r30, r30
     a60:	ff 1f       	adc	r31, r31
     a62:	ee 0f       	add	r30, r30
     a64:	ff 1f       	adc	r31, r31
     a66:	e2 58       	subi	r30, 0x82	; 130
     a68:	fe 4f       	sbci	r31, 0xFE	; 254
     a6a:	e2 0f       	add	r30, r18
     a6c:	f3 1f       	adc	r31, r19
     a6e:	84 81       	ldd	r24, Z+4	; 0x04
     a70:	82 9d       	mul	r24, r2
     a72:	20 2c       	mov	r2, r0
     a74:	11 24       	eor	r1, r1
     a76:	24 82       	std	Z+4, r2	; 0x04
	} else {
		//SET-LI: 0b0 L LL LLLL | LLLL LLLL;
		buffer->light = ((instruction[0]<<8) + instruction[1]) & ~(1<<15);
		avrecord->pc += 2;
	}
	return false;
     a78:	80 e0       	ldi	r24, 0x00	; 0
     a7a:	bf c0       	rjmp	.+382    	; 0xbfa <_ZN4arch11fetchBufferEv+0x7a6>
					}
					if (seg==1){
						// MUL-I
						*reg3 *= instruction[1];
					}
					if (seg==2){
     a7c:	82 30       	cpi	r24, 0x02	; 2
     a7e:	91 f4       	brne	.+36     	; 0xaa4 <_ZN4arch11fetchBufferEv+0x650>
						// DIV-I
						*reg3 /= instruction[1];
     a80:	f6 01       	movw	r30, r12
     a82:	ee 0f       	add	r30, r30
     a84:	ff 1f       	adc	r31, r31
     a86:	ee 0f       	add	r30, r30
     a88:	ff 1f       	adc	r31, r31
     a8a:	ee 0f       	add	r30, r30
     a8c:	ff 1f       	adc	r31, r31
     a8e:	e2 58       	subi	r30, 0x82	; 130
     a90:	fe 4f       	sbci	r31, 0xFE	; 254
     a92:	e2 0f       	add	r30, r18
     a94:	f3 1f       	adc	r31, r19
     a96:	84 81       	ldd	r24, Z+4	; 0x04
     a98:	62 2d       	mov	r22, r2
     a9a:	0e 94 a6 0d 	call	0x1b4c	; 0x1b4c <__udivmodqi4>
     a9e:	84 83       	std	Z+4, r24	; 0x04
	} else {
		//SET-LI: 0b0 L LL LLLL | LLLL LLLL;
		buffer->light = ((instruction[0]<<8) + instruction[1]) & ~(1<<15);
		avrecord->pc += 2;
	}
	return false;
     aa0:	80 e0       	ldi	r24, 0x00	; 0
     aa2:	ab c0       	rjmp	.+342    	; 0xbfa <_ZN4arch11fetchBufferEv+0x7a6>
					}
					if (seg==2){
						// DIV-I
						*reg3 /= instruction[1];
					}
					if (seg==3){
     aa4:	83 30       	cpi	r24, 0x03	; 3
     aa6:	09 f0       	breq	.+2      	; 0xaaa <_ZN4arch11fetchBufferEv+0x656>
     aa8:	a1 c0       	rjmp	.+322    	; 0xbec <_ZN4arch11fetchBufferEv+0x798>
						// MOD-I
						*reg3 = *reg3 % instruction[1];
     aaa:	f6 01       	movw	r30, r12
     aac:	ee 0f       	add	r30, r30
     aae:	ff 1f       	adc	r31, r31
     ab0:	ee 0f       	add	r30, r30
     ab2:	ff 1f       	adc	r31, r31
     ab4:	ee 0f       	add	r30, r30
     ab6:	ff 1f       	adc	r31, r31
     ab8:	e2 58       	subi	r30, 0x82	; 130
     aba:	fe 4f       	sbci	r31, 0xFE	; 254
     abc:	e2 0f       	add	r30, r18
     abe:	f3 1f       	adc	r31, r19
     ac0:	84 81       	ldd	r24, Z+4	; 0x04
     ac2:	62 2d       	mov	r22, r2
     ac4:	0e 94 a6 0d 	call	0x1b4c	; 0x1b4c <__udivmodqi4>
     ac8:	94 83       	std	Z+4, r25	; 0x04
	} else {
		//SET-LI: 0b0 L LL LLLL | LLLL LLLL;
		buffer->light = ((instruction[0]<<8) + instruction[1]) & ~(1<<15);
		avrecord->pc += 2;
	}
	return false;
     aca:	80 e0       	ldi	r24, 0x00	; 0
     acc:	96 c0       	rjmp	.+300    	; 0xbfa <_ZN4arch11fetchBufferEv+0x7a6>
						// MOD-I
						*reg3 = *reg3 % instruction[1];
					}
				} else {
					// JUMP ON CONDITION: 0x 1000 XX RR | Immediate | Instruction - Address
					avrecord->pc += 3;
     ace:	f6 01       	movw	r30, r12
     ad0:	ee 0f       	add	r30, r30
     ad2:	ff 1f       	adc	r31, r31
     ad4:	ee 0f       	add	r30, r30
     ad6:	ff 1f       	adc	r31, r31
     ad8:	ee 0f       	add	r30, r30
     ada:	ff 1f       	adc	r31, r31
     adc:	e2 58       	subi	r30, 0x82	; 130
     ade:	fe 4f       	sbci	r31, 0xFE	; 254
     ae0:	43 e0       	ldi	r20, 0x03	; 3
     ae2:	a4 0e       	add	r10, r20
     ae4:	b1 1c       	adc	r11, r1
     ae6:	b2 82       	std	Z+2, r11	; 0x02
     ae8:	a1 82       	std	Z+1, r10	; 0x01
					if (
     aea:	81 11       	cpse	r24, r1
     aec:	07 c0       	rjmp	.+14     	; 0xafc <_ZN4arch11fetchBufferEv+0x6a8>
							( (seg==0) && (*reg3 == instruction[1]) ) // JMP-EQ
     aee:	e2 0f       	add	r30, r18
     af0:	f3 1f       	adc	r31, r19
     af2:	84 81       	ldd	r24, Z+4	; 0x04
     af4:	28 16       	cp	r2, r24
     af6:	d9 f1       	breq	.+118    	; 0xb6e <_ZN4arch11fetchBufferEv+0x71a>
	} else {
		//SET-LI: 0b0 L LL LLLL | LLLL LLLL;
		buffer->light = ((instruction[0]<<8) + instruction[1]) & ~(1<<15);
		avrecord->pc += 2;
	}
	return false;
     af8:	80 e0       	ldi	r24, 0x00	; 0
     afa:	7f c0       	rjmp	.+254    	; 0xbfa <_ZN4arch11fetchBufferEv+0x7a6>
				} else {
					// JUMP ON CONDITION: 0x 1000 XX RR | Immediate | Instruction - Address
					avrecord->pc += 3;
					if (
							( (seg==0) && (*reg3 == instruction[1]) ) // JMP-EQ
								||
     afc:	81 30       	cpi	r24, 0x01	; 1
     afe:	89 f4       	brne	.+34     	; 0xb22 <_ZN4arch11fetchBufferEv+0x6ce>
							( (seg==1) && (*reg3 != instruction[1]) ) // JMP-NE
     b00:	c6 01       	movw	r24, r12
     b02:	88 0f       	add	r24, r24
     b04:	99 1f       	adc	r25, r25
     b06:	88 0f       	add	r24, r24
     b08:	99 1f       	adc	r25, r25
     b0a:	88 0f       	add	r24, r24
     b0c:	99 1f       	adc	r25, r25
     b0e:	82 58       	subi	r24, 0x82	; 130
     b10:	9e 4f       	sbci	r25, 0xFE	; 254
     b12:	fc 01       	movw	r30, r24
     b14:	e2 0f       	add	r30, r18
     b16:	f3 1f       	adc	r31, r19
     b18:	84 81       	ldd	r24, Z+4	; 0x04
     b1a:	28 12       	cpse	r2, r24
     b1c:	28 c0       	rjmp	.+80     	; 0xb6e <_ZN4arch11fetchBufferEv+0x71a>
	} else {
		//SET-LI: 0b0 L LL LLLL | LLLL LLLL;
		buffer->light = ((instruction[0]<<8) + instruction[1]) & ~(1<<15);
		avrecord->pc += 2;
	}
	return false;
     b1e:	80 e0       	ldi	r24, 0x00	; 0
     b20:	6c c0       	rjmp	.+216    	; 0xbfa <_ZN4arch11fetchBufferEv+0x7a6>
					avrecord->pc += 3;
					if (
							( (seg==0) && (*reg3 == instruction[1]) ) // JMP-EQ
								||
							( (seg==1) && (*reg3 != instruction[1]) ) // JMP-NE
								||
     b22:	82 30       	cpi	r24, 0x02	; 2
     b24:	89 f4       	brne	.+34     	; 0xb48 <_ZN4arch11fetchBufferEv+0x6f4>
							( (seg==2) && (*reg3 < instruction[1]) ) // JMP-LT
     b26:	c6 01       	movw	r24, r12
     b28:	88 0f       	add	r24, r24
     b2a:	99 1f       	adc	r25, r25
     b2c:	88 0f       	add	r24, r24
     b2e:	99 1f       	adc	r25, r25
     b30:	88 0f       	add	r24, r24
     b32:	99 1f       	adc	r25, r25
     b34:	82 58       	subi	r24, 0x82	; 130
     b36:	9e 4f       	sbci	r25, 0xFE	; 254
     b38:	fc 01       	movw	r30, r24
     b3a:	e2 0f       	add	r30, r18
     b3c:	f3 1f       	adc	r31, r19
     b3e:	84 81       	ldd	r24, Z+4	; 0x04
     b40:	82 15       	cp	r24, r2
     b42:	a8 f0       	brcs	.+42     	; 0xb6e <_ZN4arch11fetchBufferEv+0x71a>
	} else {
		//SET-LI: 0b0 L LL LLLL | LLLL LLLL;
		buffer->light = ((instruction[0]<<8) + instruction[1]) & ~(1<<15);
		avrecord->pc += 2;
	}
	return false;
     b44:	80 e0       	ldi	r24, 0x00	; 0
     b46:	59 c0       	rjmp	.+178    	; 0xbfa <_ZN4arch11fetchBufferEv+0x7a6>
							( (seg==0) && (*reg3 == instruction[1]) ) // JMP-EQ
								||
							( (seg==1) && (*reg3 != instruction[1]) ) // JMP-NE
								||
							( (seg==2) && (*reg3 < instruction[1]) ) // JMP-LT
								||
     b48:	83 30       	cpi	r24, 0x03	; 3
     b4a:	09 f0       	breq	.+2      	; 0xb4e <_ZN4arch11fetchBufferEv+0x6fa>
     b4c:	51 c0       	rjmp	.+162    	; 0xbf0 <_ZN4arch11fetchBufferEv+0x79c>
							( (seg==3) && (*reg3 > instruction[1]) ) // JMP-GT
     b4e:	c6 01       	movw	r24, r12
     b50:	88 0f       	add	r24, r24
     b52:	99 1f       	adc	r25, r25
     b54:	88 0f       	add	r24, r24
     b56:	99 1f       	adc	r25, r25
     b58:	88 0f       	add	r24, r24
     b5a:	99 1f       	adc	r25, r25
     b5c:	82 58       	subi	r24, 0x82	; 130
     b5e:	9e 4f       	sbci	r25, 0xFE	; 254
     b60:	fc 01       	movw	r30, r24
     b62:	e2 0f       	add	r30, r18
     b64:	f3 1f       	adc	r31, r19
     b66:	84 81       	ldd	r24, Z+4	; 0x04
     b68:	28 16       	cp	r2, r24
     b6a:	08 f0       	brcs	.+2      	; 0xb6e <_ZN4arch11fetchBufferEv+0x71a>
     b6c:	43 c0       	rjmp	.+134    	; 0xbf4 <_ZN4arch11fetchBufferEv+0x7a0>
     b6e:	19 82       	std	Y+1, r1	; 0x01
     b70:	ae 01       	movw	r20, r28
     b72:	4f 5f       	subi	r20, 0xFF	; 255
     b74:	5f 4f       	sbci	r21, 0xFF	; 255
     b76:	69 85       	ldd	r22, Y+9	; 0x09
     b78:	83 2d       	mov	r24, r3
     b7a:	23 db       	rcall	.-2490   	; 0x1c2 <_ZN4arch17EEPAddressHelper_EhhRKb>
																			){
						avrecord->pc = arch::getAddress(avrecord->program,instruction[2]);
     b7c:	f6 01       	movw	r30, r12
     b7e:	ee 0f       	add	r30, r30
     b80:	ff 1f       	adc	r31, r31
     b82:	ee 0f       	add	r30, r30
     b84:	ff 1f       	adc	r31, r31
     b86:	ee 0f       	add	r30, r30
     b88:	ff 1f       	adc	r31, r31
     b8a:	e2 58       	subi	r30, 0x82	; 130
     b8c:	fe 4f       	sbci	r31, 0xFE	; 254
     b8e:	92 83       	std	Z+2, r25	; 0x02
     b90:	81 83       	std	Z+1, r24	; 0x01
						if (instruction[2] == 0){
     b92:	e9 84       	ldd	r14, Y+9	; 0x09
     b94:	e1 10       	cpse	r14, r1
     b96:	30 c0       	rjmp	.+96     	; 0xbf8 <_ZN4arch11fetchBufferEv+0x7a4>
							arch::programHeaderInterpreter();
     b98:	e0 db       	rcall	.-2112   	; 0x35a <_ZN4arch24programHeaderInterpreterEv>
	} else {
		//SET-LI: 0b0 L LL LLLL | LLLL LLLL;
		buffer->light = ((instruction[0]<<8) + instruction[1]) & ~(1<<15);
		avrecord->pc += 2;
	}
	return false;
     b9a:	80 e0       	ldi	r24, 0x00	; 0
     b9c:	2e c0       	rjmp	.+92     	; 0xbfa <_ZN4arch11fetchBufferEv+0x7a6>
				}
			}
		}
	} else {
		//SET-LI: 0b0 L LL LLLL | LLLL LLLL;
		buffer->light = ((instruction[0]<<8) + instruction[1]) & ~(1<<15);
     b9e:	f7 01       	movw	r30, r14
     ba0:	ee 0f       	add	r30, r30
     ba2:	ff 1f       	adc	r31, r31
     ba4:	ee 0d       	add	r30, r14
     ba6:	ff 1d       	adc	r31, r15
     ba8:	e1 54       	subi	r30, 0x41	; 65
     baa:	fe 4f       	sbci	r31, 0xFE	; 254
     bac:	85 2d       	mov	r24, r5
     bae:	90 e0       	ldi	r25, 0x00	; 0
     bb0:	98 2f       	mov	r25, r24
     bb2:	88 27       	eor	r24, r24
     bb4:	82 0d       	add	r24, r2
     bb6:	91 1d       	adc	r25, r1
     bb8:	9f 77       	andi	r25, 0x7F	; 127
     bba:	91 83       	std	Z+1, r25	; 0x01
     bbc:	80 83       	st	Z, r24
		avrecord->pc += 2;
     bbe:	f6 01       	movw	r30, r12
     bc0:	ee 0f       	add	r30, r30
     bc2:	ff 1f       	adc	r31, r31
     bc4:	ee 0f       	add	r30, r30
     bc6:	ff 1f       	adc	r31, r31
     bc8:	ee 0f       	add	r30, r30
     bca:	ff 1f       	adc	r31, r31
     bcc:	e2 58       	subi	r30, 0x82	; 130
     bce:	fe 4f       	sbci	r31, 0xFE	; 254
     bd0:	92 82       	std	Z+2, r9	; 0x02
     bd2:	81 82       	std	Z+1, r8	; 0x01
	}
	return false;
     bd4:	80 e0       	ldi	r24, 0x00	; 0
     bd6:	11 c0       	rjmp	.+34     	; 0xbfa <_ZN4arch11fetchBufferEv+0x7a6>
	/* Interpreter which deals with exactly one task, returns true if idle ( = the buffer is full) */
	/* feeds the state.light.buffer */
	
	if ( (state.light.write+1) % BUFFERSIZE == state.light.read ){
		// no space to buffer new instructions
		return true;
     bd8:	81 e0       	ldi	r24, 0x01	; 1
     bda:	0f c0       	rjmp	.+30     	; 0xbfa <_ZN4arch11fetchBufferEv+0x7a6>
	} else {
		//SET-LI: 0b0 L LL LLLL | LLLL LLLL;
		buffer->light = ((instruction[0]<<8) + instruction[1]) & ~(1<<15);
		avrecord->pc += 2;
	}
	return false;
     bdc:	80 e0       	ldi	r24, 0x00	; 0
     bde:	0d c0       	rjmp	.+26     	; 0xbfa <_ZN4arch11fetchBufferEv+0x7a6>
     be0:	80 e0       	ldi	r24, 0x00	; 0
     be2:	0b c0       	rjmp	.+22     	; 0xbfa <_ZN4arch11fetchBufferEv+0x7a6>
     be4:	80 e0       	ldi	r24, 0x00	; 0
     be6:	09 c0       	rjmp	.+18     	; 0xbfa <_ZN4arch11fetchBufferEv+0x7a6>
     be8:	80 e0       	ldi	r24, 0x00	; 0
     bea:	07 c0       	rjmp	.+14     	; 0xbfa <_ZN4arch11fetchBufferEv+0x7a6>
     bec:	80 e0       	ldi	r24, 0x00	; 0
     bee:	05 c0       	rjmp	.+10     	; 0xbfa <_ZN4arch11fetchBufferEv+0x7a6>
     bf0:	80 e0       	ldi	r24, 0x00	; 0
     bf2:	03 c0       	rjmp	.+6      	; 0xbfa <_ZN4arch11fetchBufferEv+0x7a6>
     bf4:	80 e0       	ldi	r24, 0x00	; 0
     bf6:	01 c0       	rjmp	.+2      	; 0xbfa <_ZN4arch11fetchBufferEv+0x7a6>
     bf8:	80 e0       	ldi	r24, 0x00	; 0
}
     bfa:	29 96       	adiw	r28, 0x09	; 9
     bfc:	0f b6       	in	r0, 0x3f	; 63
     bfe:	f8 94       	cli
     c00:	de bf       	out	0x3e, r29	; 62
     c02:	0f be       	out	0x3f, r0	; 63
     c04:	cd bf       	out	0x3d, r28	; 61
     c06:	df 91       	pop	r29
     c08:	cf 91       	pop	r28
     c0a:	1f 91       	pop	r17
     c0c:	0f 91       	pop	r16
     c0e:	ff 90       	pop	r15
     c10:	ef 90       	pop	r14
     c12:	df 90       	pop	r13
     c14:	cf 90       	pop	r12
     c16:	bf 90       	pop	r11
     c18:	af 90       	pop	r10
     c1a:	9f 90       	pop	r9
     c1c:	8f 90       	pop	r8
     c1e:	7f 90       	pop	r7
     c20:	6f 90       	pop	r6
     c22:	5f 90       	pop	r5
     c24:	4f 90       	pop	r4
     c26:	3f 90       	pop	r3
     c28:	2f 90       	pop	r2
     c2a:	08 95       	ret

00000c2c <_ZN4arch10controllerEv>:

void arch::controller()	{// for user
     c2c:	cf 93       	push	r28
     c2e:	c4 e1       	ldi	r28, 0x14	; 20
     c30:	02 c0       	rjmp	.+4      	; 0xc36 <_ZN4arch10controllerEv+0xa>
     c32:	c1 50       	subi	r28, 0x01	; 1
	/* central control sequence of light controller */
	
	constexpr uint8_t max = 20; // <<<< change if this could be good, should be defined on top of this file
	for (uint8_t i = 0; (i<max) && (!arch::fetchBuffer()) ; ++i);
     c34:	19 f0       	breq	.+6      	; 0xc3c <_ZN4arch10controllerEv+0x10>
     c36:	0e dc       	rcall	.-2020   	; 0x454 <_ZN4arch11fetchBufferEv>
     c38:	88 23       	and	r24, r24
     c3a:	d9 f3       	breq	.-10     	; 0xc32 <_ZN4arch10controllerEv+0x6>
	
	if (state.light.bufferWait){
     c3c:	80 91 f1 01 	lds	r24, 0x01F1	; 0x8001f1 <__data_end+0x73>
     c40:	88 23       	and	r24, r24
     c42:	19 f0       	breq	.+6      	; 0xc4a <_ZN4arch10controllerEv+0x1e>
		state.light.bufferWait = false;
     c44:	10 92 f1 01 	sts	0x01F1, r1	; 0x8001f1 <__data_end+0x73>
		arch::readBuffer();
     c48:	7f da       	rcall	.-2818   	; 0x148 <_ZN4arch10readBufferEv>
	}
}
     c4a:	cf 91       	pop	r28
     c4c:	08 95       	ret

00000c4e <_ZN11ItemManager4initEPFvvE>:
void input::disableEvents(){
	for(uint8_t button = 0; button <5; ++button){
		inputEvents.buttonEvent[button][BUTTON_UP].enable = false;
		inputEvents.buttonEvent[button][BUTTON_DOWN].enable = false;
	}
}
     c4e:	fc 01       	movw	r30, r24
     c50:	73 83       	std	Z+3, r23	; 0x03
     c52:	62 83       	std	Z+2, r22	; 0x02
     c54:	15 82       	std	Z+5, r1	; 0x05
     c56:	14 82       	std	Z+4, r1	; 0x04
     c58:	08 95       	ret

00000c5a <_ZN11ItemManager8finalizeEv>:
     c5a:	fc 01       	movw	r30, r24
     c5c:	13 82       	std	Z+3, r1	; 0x03
     c5e:	12 82       	std	Z+2, r1	; 0x02
     c60:	15 82       	std	Z+5, r1	; 0x05
     c62:	14 82       	std	Z+4, r1	; 0x04
     c64:	08 95       	ret

00000c66 <_ZN21ArcProgramItemManager4initEPFvvES1_b>:
     c66:	fc 01       	movw	r30, r24
     c68:	73 83       	std	Z+3, r23	; 0x03
     c6a:	62 83       	std	Z+2, r22	; 0x02
     c6c:	15 82       	std	Z+5, r1	; 0x05
     c6e:	14 82       	std	Z+4, r1	; 0x04
     c70:	57 83       	std	Z+7, r21	; 0x07
     c72:	46 83       	std	Z+6, r20	; 0x06
     c74:	20 87       	std	Z+8, r18	; 0x08
     c76:	08 95       	ret

00000c78 <_ZN21ArcProgramItemManagerD1Ev>:
     c78:	08 95       	ret

00000c7a <_ZN21ArcProgramItemManagerD0Ev>:
     c7a:	08 95       	ret

00000c7c <_ZN21ArcProgramItemManager24runItemProcedureInternalEv>:
     c7c:	cf 93       	push	r28
     c7e:	df 93       	push	r29
     c80:	ec 01       	movw	r28, r24
     c82:	98 85       	ldd	r25, Y+8	; 0x08
     c84:	81 e0       	ldi	r24, 0x01	; 1
     c86:	89 27       	eor	r24, r25
     c88:	9c 81       	ldd	r25, Y+4	; 0x04
     c8a:	89 0f       	add	r24, r25
     c8c:	b8 db       	rcall	.-2192   	; 0x3fe <_ZN4arch10runProgramEh>
     c8e:	ee 81       	ldd	r30, Y+6	; 0x06
     c90:	ff 81       	ldd	r31, Y+7	; 0x07
     c92:	30 97       	sbiw	r30, 0x00	; 0
     c94:	09 f0       	breq	.+2      	; 0xc98 <_ZN21ArcProgramItemManager24runItemProcedureInternalEv+0x1c>
     c96:	09 95       	icall
     c98:	df 91       	pop	r29
     c9a:	cf 91       	pop	r28
     c9c:	08 95       	ret

00000c9e <_ZN21ArcProgramItemManager7getSizeEv>:
     c9e:	0f 93       	push	r16
     ca0:	1f 93       	push	r17
     ca2:	cf 93       	push	r28
     ca4:	df 93       	push	r29
     ca6:	1f 92       	push	r1
     ca8:	cd b7       	in	r28, 0x3d	; 61
     caa:	de b7       	in	r29, 0x3e	; 62
     cac:	8c 01       	movw	r16, r24
     cae:	81 e0       	ldi	r24, 0x01	; 1
     cb0:	89 83       	std	Y+1, r24	; 0x01
     cb2:	ae 01       	movw	r20, r28
     cb4:	4f 5f       	subi	r20, 0xFF	; 255
     cb6:	5f 4f       	sbci	r21, 0xFF	; 255
     cb8:	60 e0       	ldi	r22, 0x00	; 0
     cba:	80 e0       	ldi	r24, 0x00	; 0
     cbc:	82 da       	rcall	.-2812   	; 0x1c2 <_ZN4arch17EEPAddressHelper_EhhRKb>
     cbe:	f8 01       	movw	r30, r16
     cc0:	90 85       	ldd	r25, Z+8	; 0x08
     cc2:	89 0f       	add	r24, r25
     cc4:	0f 90       	pop	r0
     cc6:	df 91       	pop	r29
     cc8:	cf 91       	pop	r28
     cca:	1f 91       	pop	r17
     ccc:	0f 91       	pop	r16
     cce:	08 95       	ret

00000cd0 <_ZN21ArcProgramItemManager20getItemLabelInternalEPc>:
     cd0:	fc 01       	movw	r30, r24
     cd2:	80 85       	ldd	r24, Z+8	; 0x08
     cd4:	91 e0       	ldi	r25, 0x01	; 1
     cd6:	98 27       	eor	r25, r24
     cd8:	84 81       	ldd	r24, Z+4	; 0x04
     cda:	89 0f       	add	r24, r25
     cdc:	f8 ca       	rjmp	.-2576   	; 0x2ce <_ZN4arch14getProgramNameEhPc>
     cde:	08 95       	ret

00000ce0 <_ZN5input11enableEventEhPFvvE>:
     ce0:	8a 30       	cpi	r24, 0x0A	; 10
     ce2:	f0 f4       	brcc	.+60     	; 0xd20 <_ZN5input11enableEventEhPFvvE+0x40>
     ce4:	28 2f       	mov	r18, r24
     ce6:	26 95       	lsr	r18
     ce8:	30 e0       	ldi	r19, 0x00	; 0
     cea:	e8 2f       	mov	r30, r24
     cec:	e1 70       	andi	r30, 0x01	; 1
     cee:	f0 e0       	ldi	r31, 0x00	; 0
     cf0:	cf 01       	movw	r24, r30
     cf2:	88 0f       	add	r24, r24
     cf4:	99 1f       	adc	r25, r25
     cf6:	e8 0f       	add	r30, r24
     cf8:	f9 1f       	adc	r31, r25
     cfa:	c9 01       	movw	r24, r18
     cfc:	88 0f       	add	r24, r24
     cfe:	99 1f       	adc	r25, r25
     d00:	dc 01       	movw	r26, r24
     d02:	a2 0f       	add	r26, r18
     d04:	b3 1f       	adc	r27, r19
     d06:	aa 0f       	add	r26, r26
     d08:	bb 1f       	adc	r27, r27
     d0a:	ae 0f       	add	r26, r30
     d0c:	bf 1f       	adc	r27, r31
     d0e:	a6 59       	subi	r26, 0x96	; 150
     d10:	bd 4f       	sbci	r27, 0xFD	; 253
     d12:	41 e0       	ldi	r20, 0x01	; 1
     d14:	12 96       	adiw	r26, 0x02	; 2
     d16:	4c 93       	st	X, r20
     d18:	12 97       	sbiw	r26, 0x02	; 2
     d1a:	fd 01       	movw	r30, r26
     d1c:	71 83       	std	Z+1, r23	; 0x01
     d1e:	60 83       	st	Z, r22
     d20:	08 95       	ret

00000d22 <_ZN12ItemSelector13enableButtonsEv>:
		gchange = 0;
		//disableEvents();###
	}
	
	inline int8_t makeEvent(uint8_t button, bool up_or_down){ /* return the int code of a given event */
		return 2*button+up_or_down;
     d22:	80 91 02 01 	lds	r24, 0x0102	; 0x800102 <_ZN12ItemSelector11button_okayE>
     d26:	88 0f       	add	r24, r24
	inline void guiInputEnableAll(void (*proc)()){ /* set all button events to the same handler function */
		for(uint8_t i = 0; i<10; ++i) enableEvent(i,proc);
	}
	
	inline void disableEvent(uint8_t buttonEvent){ /* disable a single button event */
		inputEvents.buttonEvent[buttonEvent/2][buttonEvent%2].enable = false;
     d28:	28 2f       	mov	r18, r24
     d2a:	26 95       	lsr	r18
     d2c:	30 e0       	ldi	r19, 0x00	; 0
     d2e:	f9 01       	movw	r30, r18
     d30:	ee 0f       	add	r30, r30
     d32:	ff 1f       	adc	r31, r31
     d34:	e2 0f       	add	r30, r18
     d36:	f3 1f       	adc	r31, r19
     d38:	ee 0f       	add	r30, r30
     d3a:	ff 1f       	adc	r31, r31
     d3c:	e6 59       	subi	r30, 0x96	; 150
     d3e:	fd 4f       	sbci	r31, 0xFD	; 253
     d40:	12 82       	std	Z+2, r1	; 0x02
}

void ItemSelector::enableButtons(){
	using namespace input;
	disableEvent(makeEvent(button_okay,BUTTON_UP));
	enableEvent(makeEvent(button_okay,BUTTON_DOWN),ItemSelector::okay_down);
     d42:	64 e2       	ldi	r22, 0x24	; 36
     d44:	77 e0       	ldi	r23, 0x07	; 7
     d46:	8f 5f       	subi	r24, 0xFF	; 255
     d48:	cb df       	rcall	.-106    	; 0xce0 <_ZN5input11enableEventEhPFvvE>
		gchange = 0;
		//disableEvents();###
	}
	
	inline int8_t makeEvent(uint8_t button, bool up_or_down){ /* return the int code of a given event */
		return 2*button+up_or_down;
     d4a:	80 91 01 01 	lds	r24, 0x0101	; 0x800101 <_ZN12ItemSelector11button_nextE>
     d4e:	88 0f       	add	r24, r24
	inline void guiInputEnableAll(void (*proc)()){ /* set all button events to the same handler function */
		for(uint8_t i = 0; i<10; ++i) enableEvent(i,proc);
	}
	
	inline void disableEvent(uint8_t buttonEvent){ /* disable a single button event */
		inputEvents.buttonEvent[buttonEvent/2][buttonEvent%2].enable = false;
     d50:	28 2f       	mov	r18, r24
     d52:	26 95       	lsr	r18
     d54:	30 e0       	ldi	r19, 0x00	; 0
     d56:	f9 01       	movw	r30, r18
     d58:	ee 0f       	add	r30, r30
     d5a:	ff 1f       	adc	r31, r31
     d5c:	e2 0f       	add	r30, r18
     d5e:	f3 1f       	adc	r31, r19
     d60:	ee 0f       	add	r30, r30
     d62:	ff 1f       	adc	r31, r31
     d64:	e6 59       	subi	r30, 0x96	; 150
     d66:	fd 4f       	sbci	r31, 0xFD	; 253
     d68:	12 82       	std	Z+2, r1	; 0x02
	disableEvent(makeEvent(button_next,BUTTON_UP));
	enableEvent(makeEvent(button_next,BUTTON_DOWN),ItemSelector::next);
     d6a:	66 e1       	ldi	r22, 0x16	; 22
     d6c:	78 e0       	ldi	r23, 0x08	; 8
     d6e:	8f 5f       	subi	r24, 0xFF	; 255
     d70:	b7 df       	rcall	.-146    	; 0xce0 <_ZN5input11enableEventEhPFvvE>
	if (button_prev != NO_BUTTON){
     d72:	80 91 00 01 	lds	r24, 0x0100	; 0x800100 <_ZN12ItemSelector11button_prevE>
     d76:	8f 3f       	cpi	r24, 0xFF	; 255
     d78:	91 f0       	breq	.+36     	; 0xd9e <_ZN12ItemSelector13enableButtonsEv+0x7c>
		gchange = 0;
		//disableEvents();###
	}
	
	inline int8_t makeEvent(uint8_t button, bool up_or_down){ /* return the int code of a given event */
		return 2*button+up_or_down;
     d7a:	88 0f       	add	r24, r24
	inline void guiInputEnableAll(void (*proc)()){ /* set all button events to the same handler function */
		for(uint8_t i = 0; i<10; ++i) enableEvent(i,proc);
	}
	
	inline void disableEvent(uint8_t buttonEvent){ /* disable a single button event */
		inputEvents.buttonEvent[buttonEvent/2][buttonEvent%2].enable = false;
     d7c:	28 2f       	mov	r18, r24
     d7e:	26 95       	lsr	r18
     d80:	30 e0       	ldi	r19, 0x00	; 0
     d82:	f9 01       	movw	r30, r18
     d84:	ee 0f       	add	r30, r30
     d86:	ff 1f       	adc	r31, r31
     d88:	e2 0f       	add	r30, r18
     d8a:	f3 1f       	adc	r31, r19
     d8c:	ee 0f       	add	r30, r30
     d8e:	ff 1f       	adc	r31, r31
     d90:	e6 59       	subi	r30, 0x96	; 150
     d92:	fd 4f       	sbci	r31, 0xFD	; 253
     d94:	12 82       	std	Z+2, r1	; 0x02
		disableEvent(makeEvent(button_prev,BUTTON_UP));
		enableEvent(makeEvent(button_prev,BUTTON_DOWN),ItemSelector::previous);
     d96:	6d e1       	ldi	r22, 0x1D	; 29
     d98:	78 e0       	ldi	r23, 0x08	; 8
     d9a:	8f 5f       	subi	r24, 0xFF	; 255
     d9c:	a1 cf       	rjmp	.-190    	; 0xce0 <_ZN5input11enableEventEhPFvvE>
     d9e:	08 95       	ret

00000da0 <_ZN12ItemSelector14setButtonsFreeEv>:
		gchange = 0;
		//disableEvents();###
	}
	
	inline int8_t makeEvent(uint8_t button, bool up_or_down){ /* return the int code of a given event */
		return 2*button+up_or_down;
     da0:	80 91 02 01 	lds	r24, 0x0102	; 0x800102 <_ZN12ItemSelector11button_okayE>
     da4:	88 0f       	add	r24, r24
	inline void guiInputEnableAll(void (*proc)()){ /* set all button events to the same handler function */
		for(uint8_t i = 0; i<10; ++i) enableEvent(i,proc);
	}
	
	inline void disableEvent(uint8_t buttonEvent){ /* disable a single button event */
		inputEvents.buttonEvent[buttonEvent/2][buttonEvent%2].enable = false;
     da6:	28 2f       	mov	r18, r24
     da8:	26 95       	lsr	r18
     daa:	30 e0       	ldi	r19, 0x00	; 0
     dac:	f9 01       	movw	r30, r18
     dae:	ee 0f       	add	r30, r30
     db0:	ff 1f       	adc	r31, r31
     db2:	e2 0f       	add	r30, r18
     db4:	f3 1f       	adc	r31, r19
     db6:	ee 0f       	add	r30, r30
     db8:	ff 1f       	adc	r31, r31
     dba:	e6 59       	subi	r30, 0x96	; 150
     dbc:	fd 4f       	sbci	r31, 0xFD	; 253
     dbe:	15 82       	std	Z+5, r1	; 0x05
     dc0:	c9 01       	movw	r24, r18
     dc2:	fc 01       	movw	r30, r24
     dc4:	ee 0f       	add	r30, r30
     dc6:	ff 1f       	adc	r31, r31
     dc8:	e8 0f       	add	r30, r24
     dca:	f9 1f       	adc	r31, r25
     dcc:	ee 0f       	add	r30, r30
     dce:	ff 1f       	adc	r31, r31
     dd0:	e6 59       	subi	r30, 0x96	; 150
     dd2:	fd 4f       	sbci	r31, 0xFD	; 253
     dd4:	12 82       	std	Z+2, r1	; 0x02
		gchange = 0;
		//disableEvents();###
	}
	
	inline int8_t makeEvent(uint8_t button, bool up_or_down){ /* return the int code of a given event */
		return 2*button+up_or_down;
     dd6:	80 91 01 01 	lds	r24, 0x0101	; 0x800101 <_ZN12ItemSelector11button_nextE>
     dda:	88 0f       	add	r24, r24
	inline void guiInputEnableAll(void (*proc)()){ /* set all button events to the same handler function */
		for(uint8_t i = 0; i<10; ++i) enableEvent(i,proc);
	}
	
	inline void disableEvent(uint8_t buttonEvent){ /* disable a single button event */
		inputEvents.buttonEvent[buttonEvent/2][buttonEvent%2].enable = false;
     ddc:	28 2f       	mov	r18, r24
     dde:	26 95       	lsr	r18
     de0:	30 e0       	ldi	r19, 0x00	; 0
     de2:	f9 01       	movw	r30, r18
     de4:	ee 0f       	add	r30, r30
     de6:	ff 1f       	adc	r31, r31
     de8:	e2 0f       	add	r30, r18
     dea:	f3 1f       	adc	r31, r19
     dec:	ee 0f       	add	r30, r30
     dee:	ff 1f       	adc	r31, r31
     df0:	e6 59       	subi	r30, 0x96	; 150
     df2:	fd 4f       	sbci	r31, 0xFD	; 253
     df4:	15 82       	std	Z+5, r1	; 0x05
     df6:	c9 01       	movw	r24, r18
     df8:	fc 01       	movw	r30, r24
     dfa:	ee 0f       	add	r30, r30
     dfc:	ff 1f       	adc	r31, r31
     dfe:	e8 0f       	add	r30, r24
     e00:	f9 1f       	adc	r31, r25
     e02:	ee 0f       	add	r30, r30
     e04:	ff 1f       	adc	r31, r31
     e06:	e6 59       	subi	r30, 0x96	; 150
     e08:	fd 4f       	sbci	r31, 0xFD	; 253
     e0a:	12 82       	std	Z+2, r1	; 0x02
	using namespace input;
	disableEvent(makeEvent(button_okay,BUTTON_DOWN));
	disableEvent(makeEvent(button_okay,BUTTON_UP));
	disableEvent(makeEvent(button_next,BUTTON_DOWN));
	disableEvent(makeEvent(button_next,BUTTON_UP));
	if (button_prev != NO_BUTTON){
     e0c:	80 91 00 01 	lds	r24, 0x0100	; 0x800100 <_ZN12ItemSelector11button_prevE>
     e10:	8f 3f       	cpi	r24, 0xFF	; 255
     e12:	c9 f0       	breq	.+50     	; 0xe46 <_ZN12ItemSelector14setButtonsFreeEv+0xa6>
		gchange = 0;
		//disableEvents();###
	}
	
	inline int8_t makeEvent(uint8_t button, bool up_or_down){ /* return the int code of a given event */
		return 2*button+up_or_down;
     e14:	88 0f       	add	r24, r24
	inline void guiInputEnableAll(void (*proc)()){ /* set all button events to the same handler function */
		for(uint8_t i = 0; i<10; ++i) enableEvent(i,proc);
	}
	
	inline void disableEvent(uint8_t buttonEvent){ /* disable a single button event */
		inputEvents.buttonEvent[buttonEvent/2][buttonEvent%2].enable = false;
     e16:	28 2f       	mov	r18, r24
     e18:	26 95       	lsr	r18
     e1a:	30 e0       	ldi	r19, 0x00	; 0
     e1c:	f9 01       	movw	r30, r18
     e1e:	ee 0f       	add	r30, r30
     e20:	ff 1f       	adc	r31, r31
     e22:	e2 0f       	add	r30, r18
     e24:	f3 1f       	adc	r31, r19
     e26:	ee 0f       	add	r30, r30
     e28:	ff 1f       	adc	r31, r31
     e2a:	e6 59       	subi	r30, 0x96	; 150
     e2c:	fd 4f       	sbci	r31, 0xFD	; 253
     e2e:	15 82       	std	Z+5, r1	; 0x05
     e30:	c9 01       	movw	r24, r18
     e32:	fc 01       	movw	r30, r24
     e34:	ee 0f       	add	r30, r30
     e36:	ff 1f       	adc	r31, r31
     e38:	e8 0f       	add	r30, r24
     e3a:	f9 1f       	adc	r31, r25
     e3c:	ee 0f       	add	r30, r30
     e3e:	ff 1f       	adc	r31, r31
     e40:	e6 59       	subi	r30, 0x96	; 150
     e42:	fd 4f       	sbci	r31, 0xFD	; 253
     e44:	12 82       	std	Z+2, r1	; 0x02
     e46:	08 95       	ret

00000e48 <_ZN12ItemSelector9okay_downEv>:
}


void ItemSelector::okay_down(){
	using namespace input;
	setButtonsFree();
     e48:	ab df       	rcall	.-170    	; 0xda0 <_ZN12ItemSelector14setButtonsFreeEv>
	led::printDotsOnly(0xFF);
     e4a:	8f ef       	ldi	r24, 0xFF	; 255
     e4c:	df d3       	rcall	.+1982   	; 0x160c <_ZN3led13printDotsOnlyEh>
	hardware::delay(300);
     e4e:	8c e2       	ldi	r24, 0x2C	; 44
     e50:	91 e0       	ldi	r25, 0x01	; 1
     e52:	5a d1       	rcall	.+692    	; 0x1108 <_ZN8hardware5delayEj>
		gchange = 0;
		//disableEvents();###
	}
	
	inline int8_t makeEvent(uint8_t button, bool up_or_down){ /* return the int code of a given event */
		return 2*button+up_or_down;
     e54:	80 91 02 01 	lds	r24, 0x0102	; 0x800102 <_ZN12ItemSelector11button_okayE>
	enableEvent(makeEvent(button_okay,BUTTON_UP),okay_up);
     e58:	6b e7       	ldi	r22, 0x7B	; 123
     e5a:	78 e0       	ldi	r23, 0x08	; 8
     e5c:	88 0f       	add	r24, r24
     e5e:	40 cf       	rjmp	.-384    	; 0xce0 <_ZN5input11enableEventEhPFvvE>
     e60:	08 95       	ret

00000e62 <_ZN12ItemSelector14initialisationEhhhP11ItemManager>:
		disableEvent(makeEvent(button_prev,BUTTON_UP));
	}
}

void ItemSelector::initialisation(uint8_t button_okay, uint8_t button_next, uint8_t button_prev, ItemManager* itemManager){
	ItemSelector::button_okay = button_okay;
     e62:	80 93 02 01 	sts	0x0102, r24	; 0x800102 <_ZN12ItemSelector11button_okayE>
	ItemSelector::button_next = button_next;
     e66:	60 93 01 01 	sts	0x0101, r22	; 0x800101 <_ZN12ItemSelector11button_nextE>
	ItemSelector::button_prev = button_prev;
     e6a:	40 93 00 01 	sts	0x0100, r20	; 0x800100 <_ZN12ItemSelector11button_prevE>
     e6e:	08 95       	ret

00000e70 <_ZN11ItemManager18runCancelProcedureEv>:
}




bool ItemManager::runCancelProcedure(){
     e70:	cf 93       	push	r28
     e72:	df 93       	push	r29
		inline uint16_t mod(){ /* return the amount of items (the mod to iterate) */
			return canCancel() + getSize();
		}
		
		inline bool canCancel(){ /* return true if there is a cancel procedure as item */
			return cancelProcedure!=nullptr;
     e74:	dc 01       	movw	r26, r24
     e76:	12 96       	adiw	r26, 0x02	; 2
     e78:	ed 91       	ld	r30, X+
     e7a:	fc 91       	ld	r31, X
     e7c:	13 97       	sbiw	r26, 0x03	; 3
	if (canCancel()){
     e7e:	30 97       	sbiw	r30, 0x00	; 0
     e80:	59 f0       	breq	.+22     	; 0xe98 <_ZN11ItemManager18runCancelProcedureEv+0x28>
     e82:	ec 01       	movw	r28, r24
		cancelProcedure();
     e84:	09 95       	icall
		finalize();
     e86:	e8 81       	ld	r30, Y
     e88:	f9 81       	ldd	r31, Y+1	; 0x01
     e8a:	00 84       	ldd	r0, Z+8	; 0x08
     e8c:	f1 85       	ldd	r31, Z+9	; 0x09
     e8e:	e0 2d       	mov	r30, r0
     e90:	ce 01       	movw	r24, r28
     e92:	09 95       	icall
		return true;
     e94:	81 e0       	ldi	r24, 0x01	; 1
     e96:	01 c0       	rjmp	.+2      	; 0xe9a <_ZN11ItemManager18runCancelProcedureEv+0x2a>
		} else {
		return false;
     e98:	80 e0       	ldi	r24, 0x00	; 0
	}
}
     e9a:	df 91       	pop	r29
     e9c:	cf 91       	pop	r28
     e9e:	08 95       	ret

00000ea0 <_ZN11ItemManagerppEv>:

ItemManager& ItemManager::operator++(){
     ea0:	ef 92       	push	r14
     ea2:	ff 92       	push	r15
     ea4:	0f 93       	push	r16
     ea6:	1f 93       	push	r17
     ea8:	cf 93       	push	r28
     eaa:	df 93       	push	r29
     eac:	ec 01       	movw	r28, r24
	position = (position + 1) % mod();
     eae:	ec 80       	ldd	r14, Y+4	; 0x04
     eb0:	fd 80       	ldd	r15, Y+5	; 0x05
     eb2:	8f ef       	ldi	r24, 0xFF	; 255
     eb4:	e8 1a       	sub	r14, r24
     eb6:	f8 0a       	sbc	r15, r24
     eb8:	01 e0       	ldi	r16, 0x01	; 1
     eba:	10 e0       	ldi	r17, 0x00	; 0
     ebc:	8a 81       	ldd	r24, Y+2	; 0x02
     ebe:	9b 81       	ldd	r25, Y+3	; 0x03
     ec0:	89 2b       	or	r24, r25
     ec2:	11 f4       	brne	.+4      	; 0xec8 <_ZN11ItemManagerppEv+0x28>
     ec4:	00 e0       	ldi	r16, 0x00	; 0
     ec6:	10 e0       	ldi	r17, 0x00	; 0
		}
		
		void (*cancelProcedure)(); /* pointer to void cancel function */
		
		inline uint16_t mod(){ /* return the amount of items (the mod to iterate) */
			return canCancel() + getSize();
     ec8:	e8 81       	ld	r30, Y
     eca:	f9 81       	ldd	r31, Y+1	; 0x01
     ecc:	04 80       	ldd	r0, Z+4	; 0x04
     ece:	f5 81       	ldd	r31, Z+5	; 0x05
     ed0:	e0 2d       	mov	r30, r0
     ed2:	ce 01       	movw	r24, r28
     ed4:	09 95       	icall
     ed6:	b8 01       	movw	r22, r16
     ed8:	68 0f       	add	r22, r24
     eda:	71 1d       	adc	r23, r1
     edc:	c7 01       	movw	r24, r14
     ede:	42 d6       	rcall	.+3204   	; 0x1b64 <__udivmodhi4>
     ee0:	9d 83       	std	Y+5, r25	; 0x05
     ee2:	8c 83       	std	Y+4, r24	; 0x04
	return *this;
}
     ee4:	ce 01       	movw	r24, r28
     ee6:	df 91       	pop	r29
     ee8:	cf 91       	pop	r28
     eea:	1f 91       	pop	r17
     eec:	0f 91       	pop	r16
     eee:	ff 90       	pop	r15
     ef0:	ef 90       	pop	r14
     ef2:	08 95       	ret

00000ef4 <_ZN11ItemManagermmEv>:

ItemManager& ItemManager::operator--(){
     ef4:	ef 92       	push	r14
     ef6:	ff 92       	push	r15
     ef8:	0f 93       	push	r16
     efa:	1f 93       	push	r17
     efc:	cf 93       	push	r28
     efe:	df 93       	push	r29
     f00:	ec 01       	movw	r28, r24
	position = (position - 1) % mod();
     f02:	ec 80       	ldd	r14, Y+4	; 0x04
     f04:	fd 80       	ldd	r15, Y+5	; 0x05
     f06:	81 e0       	ldi	r24, 0x01	; 1
     f08:	e8 1a       	sub	r14, r24
     f0a:	f1 08       	sbc	r15, r1
		}
		
		inline bool canCancel(){ /* return true if there is a cancel procedure as item */
			return cancelProcedure!=nullptr;
     f0c:	01 e0       	ldi	r16, 0x01	; 1
     f0e:	10 e0       	ldi	r17, 0x00	; 0
     f10:	8a 81       	ldd	r24, Y+2	; 0x02
     f12:	9b 81       	ldd	r25, Y+3	; 0x03
     f14:	89 2b       	or	r24, r25
     f16:	11 f4       	brne	.+4      	; 0xf1c <_ZN11ItemManagermmEv+0x28>
     f18:	00 e0       	ldi	r16, 0x00	; 0
     f1a:	10 e0       	ldi	r17, 0x00	; 0
		}
		
		void (*cancelProcedure)(); /* pointer to void cancel function */
		
		inline uint16_t mod(){ /* return the amount of items (the mod to iterate) */
			return canCancel() + getSize();
     f1c:	e8 81       	ld	r30, Y
     f1e:	f9 81       	ldd	r31, Y+1	; 0x01
     f20:	04 80       	ldd	r0, Z+4	; 0x04
     f22:	f5 81       	ldd	r31, Z+5	; 0x05
     f24:	e0 2d       	mov	r30, r0
     f26:	ce 01       	movw	r24, r28
     f28:	09 95       	icall
     f2a:	b8 01       	movw	r22, r16
     f2c:	68 0f       	add	r22, r24
     f2e:	71 1d       	adc	r23, r1
     f30:	c7 01       	movw	r24, r14
     f32:	18 d6       	rcall	.+3120   	; 0x1b64 <__udivmodhi4>
     f34:	9d 83       	std	Y+5, r25	; 0x05
     f36:	8c 83       	std	Y+4, r24	; 0x04
	return *this;
}
     f38:	ce 01       	movw	r24, r28
     f3a:	df 91       	pop	r29
     f3c:	cf 91       	pop	r28
     f3e:	1f 91       	pop	r17
     f40:	0f 91       	pop	r16
     f42:	ff 90       	pop	r15
     f44:	ef 90       	pop	r14
     f46:	08 95       	ret

00000f48 <_ZN11ItemManager12getItemLabelEPc>:

void ItemManager::getItemLabel(char* string_8_bytes){
     f48:	cf 92       	push	r12
     f4a:	df 92       	push	r13
     f4c:	ef 92       	push	r14
     f4e:	ff 92       	push	r15
     f50:	0f 93       	push	r16
     f52:	1f 93       	push	r17
     f54:	cf 93       	push	r28
     f56:	df 93       	push	r29
     f58:	cd b7       	in	r28, 0x3d	; 61
     f5a:	de b7       	in	r29, 0x3e	; 62
     f5c:	27 97       	sbiw	r28, 0x07	; 7
     f5e:	0f b6       	in	r0, 0x3f	; 63
     f60:	f8 94       	cli
     f62:	de bf       	out	0x3e, r29	; 62
     f64:	0f be       	out	0x3f, r0	; 63
     f66:	cd bf       	out	0x3d, r28	; 61
     f68:	8c 01       	movw	r16, r24
     f6a:	6b 01       	movw	r12, r22

class ItemManager {
	
	private:
		inline bool onCancelItem(){ /* return wehther the selected item is the cancel item*/
			return (canCancel()) && (static_cast<uint8_t> (position) == mod()-1);
     f6c:	dc 01       	movw	r26, r24
     f6e:	12 96       	adiw	r26, 0x02	; 2
     f70:	8d 91       	ld	r24, X+
     f72:	9c 91       	ld	r25, X
     f74:	13 97       	sbiw	r26, 0x03	; 3
     f76:	89 2b       	or	r24, r25
     f78:	11 f1       	breq	.+68     	; 0xfbe <_ZN11ItemManager12getItemLabelEPc+0x76>
     f7a:	14 96       	adiw	r26, 0x04	; 4
     f7c:	ed 90       	ld	r14, X+
     f7e:	fc 90       	ld	r15, X
     f80:	15 97       	sbiw	r26, 0x05	; 5
     f82:	ff 24       	eor	r15, r15
		}
		
		void (*cancelProcedure)(); /* pointer to void cancel function */
		
		inline uint16_t mod(){ /* return the amount of items (the mod to iterate) */
			return canCancel() + getSize();
     f84:	ed 91       	ld	r30, X+
     f86:	fc 91       	ld	r31, X
     f88:	04 80       	ldd	r0, Z+4	; 0x04
     f8a:	f5 81       	ldd	r31, Z+5	; 0x05
     f8c:	e0 2d       	mov	r30, r0
     f8e:	c8 01       	movw	r24, r16
     f90:	09 95       	icall
     f92:	28 2f       	mov	r18, r24
     f94:	30 e0       	ldi	r19, 0x00	; 0
	if (onCancelItem()){
     f96:	e2 16       	cp	r14, r18
     f98:	f3 06       	cpc	r15, r19
     f9a:	89 f4       	brne	.+34     	; 0xfbe <_ZN11ItemManager12getItemLabelEPc+0x76>
		//## make a Cancel
		char mystring[] = "CANCEL";
     f9c:	87 e0       	ldi	r24, 0x07	; 7
     f9e:	e3 e0       	ldi	r30, 0x03	; 3
     fa0:	f1 e0       	ldi	r31, 0x01	; 1
     fa2:	de 01       	movw	r26, r28
     fa4:	11 96       	adiw	r26, 0x01	; 1
     fa6:	01 90       	ld	r0, Z+
     fa8:	0d 92       	st	X+, r0
     faa:	8a 95       	dec	r24
     fac:	e1 f7       	brne	.-8      	; 0xfa6 <_ZN11ItemManager12getItemLabelEPc+0x5e>
		hardware::copyString(string_8_bytes,mystring,8,false);
     fae:	20 e0       	ldi	r18, 0x00	; 0
     fb0:	48 e0       	ldi	r20, 0x08	; 8
     fb2:	be 01       	movw	r22, r28
     fb4:	6f 5f       	subi	r22, 0xFF	; 255
     fb6:	7f 4f       	sbci	r23, 0xFF	; 255
     fb8:	c6 01       	movw	r24, r12
     fba:	c8 d0       	rcall	.+400    	; 0x114c <_ZN8hardware10copyStringEPcPKchb>
     fbc:	09 c0       	rjmp	.+18     	; 0xfd0 <_ZN11ItemManager12getItemLabelEPc+0x88>
		} else {
		getItemLabelInternal(string_8_bytes);
     fbe:	d8 01       	movw	r26, r16
     fc0:	ed 91       	ld	r30, X+
     fc2:	fc 91       	ld	r31, X
     fc4:	01 90       	ld	r0, Z+
     fc6:	f0 81       	ld	r31, Z
     fc8:	e0 2d       	mov	r30, r0
     fca:	b6 01       	movw	r22, r12
     fcc:	c8 01       	movw	r24, r16
     fce:	09 95       	icall
	}
}
     fd0:	27 96       	adiw	r28, 0x07	; 7
     fd2:	0f b6       	in	r0, 0x3f	; 63
     fd4:	f8 94       	cli
     fd6:	de bf       	out	0x3e, r29	; 62
     fd8:	0f be       	out	0x3f, r0	; 63
     fda:	cd bf       	out	0x3d, r28	; 61
     fdc:	df 91       	pop	r29
     fde:	cf 91       	pop	r28
     fe0:	1f 91       	pop	r17
     fe2:	0f 91       	pop	r16
     fe4:	ff 90       	pop	r15
     fe6:	ef 90       	pop	r14
     fe8:	df 90       	pop	r13
     fea:	cf 90       	pop	r12
     fec:	08 95       	ret

00000fee <_ZN12ItemSelector9printItemEv>:
void ItemSelector::previous(){
	--(*itemManager);
	printItem();
}

void ItemSelector::printItem(){
     fee:	cf 93       	push	r28
     ff0:	df 93       	push	r29
     ff2:	cd b7       	in	r28, 0x3d	; 61
     ff4:	de b7       	in	r29, 0x3e	; 62
     ff6:	29 97       	sbiw	r28, 0x09	; 9
     ff8:	0f b6       	in	r0, 0x3f	; 63
     ffa:	f8 94       	cli
     ffc:	de bf       	out	0x3e, r29	; 62
     ffe:	0f be       	out	0x3f, r0	; 63
    1000:	cd bf       	out	0x3d, r28	; 61
	char label[9];
	itemManager->getItemLabel(label);
    1002:	be 01       	movw	r22, r28
    1004:	6f 5f       	subi	r22, 0xFF	; 255
    1006:	7f 4f       	sbci	r23, 0xFF	; 255
    1008:	80 91 68 02 	lds	r24, 0x0268	; 0x800268 <_ZN12ItemSelector11itemManagerE>
    100c:	90 91 69 02 	lds	r25, 0x0269	; 0x800269 <_ZN12ItemSelector11itemManagerE+0x1>
    1010:	9b df       	rcall	.-202    	; 0xf48 <_ZN11ItemManager12getItemLabelEPc>
	label[8] = '\0';
    1012:	19 86       	std	Y+9, r1	; 0x09
	led::LFPrintString(label);// this function should also exist with an secound parameter to set the string legth!!!#####
    1014:	ce 01       	movw	r24, r28
    1016:	01 96       	adiw	r24, 0x01	; 1
    1018:	f0 d2       	rcall	.+1504   	; 0x15fa <_ZN3led13LFPrintStringEPKc>
}
    101a:	29 96       	adiw	r28, 0x09	; 9
    101c:	0f b6       	in	r0, 0x3f	; 63
    101e:	f8 94       	cli
    1020:	de bf       	out	0x3e, r29	; 62
    1022:	0f be       	out	0x3f, r0	; 63
    1024:	cd bf       	out	0x3d, r28	; 61
    1026:	df 91       	pop	r29
    1028:	cf 91       	pop	r28
    102a:	08 95       	ret

0000102c <_ZN12ItemSelector4nextEv>:
	finalize();
}


void ItemSelector::next(){
	++(*itemManager);
    102c:	80 91 68 02 	lds	r24, 0x0268	; 0x800268 <_ZN12ItemSelector11itemManagerE>
    1030:	90 91 69 02 	lds	r25, 0x0269	; 0x800269 <_ZN12ItemSelector11itemManagerE+0x1>
    1034:	35 df       	rcall	.-406    	; 0xea0 <_ZN11ItemManagerppEv>
	printItem();
    1036:	db cf       	rjmp	.-74     	; 0xfee <_ZN12ItemSelector9printItemEv>
    1038:	08 95       	ret

0000103a <_ZN12ItemSelector8previousEv>:
}

void ItemSelector::previous(){
	--(*itemManager);
    103a:	80 91 68 02 	lds	r24, 0x0268	; 0x800268 <_ZN12ItemSelector11itemManagerE>
    103e:	90 91 69 02 	lds	r25, 0x0269	; 0x800269 <_ZN12ItemSelector11itemManagerE+0x1>
    1042:	58 df       	rcall	.-336    	; 0xef4 <_ZN11ItemManagermmEv>
	printItem();
    1044:	d4 cf       	rjmp	.-88     	; 0xfee <_ZN12ItemSelector9printItemEv>
    1046:	08 95       	ret

00001048 <_ZN12ItemSelector3runEv>:
	itemManager->getItemLabel(label);
	label[8] = '\0';
	led::LFPrintString(label);// this function should also exist with an secound parameter to set the string legth!!!#####
}

bool ItemSelector::run(){
    1048:	cf 93       	push	r28
    104a:	df 93       	push	r29
	// no items:
	if (itemManager->isEmpty()) return false; //<<<<<< throw error
    104c:	a0 91 68 02 	lds	r26, 0x0268	; 0x800268 <_ZN12ItemSelector11itemManagerE>
    1050:	b0 91 69 02 	lds	r27, 0x0269	; 0x800269 <_ZN12ItemSelector11itemManagerE+0x1>
		}
		
		inline bool canCancel(){ /* return true if there is a cancel procedure as item */
			return cancelProcedure!=nullptr;
    1054:	c1 e0       	ldi	r28, 0x01	; 1
    1056:	d0 e0       	ldi	r29, 0x00	; 0
    1058:	12 96       	adiw	r26, 0x02	; 2
    105a:	8d 91       	ld	r24, X+
    105c:	9c 91       	ld	r25, X
    105e:	13 97       	sbiw	r26, 0x03	; 3
    1060:	89 2b       	or	r24, r25
    1062:	11 f4       	brne	.+4      	; 0x1068 <_ZN12ItemSelector3runEv+0x20>
    1064:	c0 e0       	ldi	r28, 0x00	; 0
    1066:	d0 e0       	ldi	r29, 0x00	; 0
		}
		
		void (*cancelProcedure)(); /* pointer to void cancel function */
		
		inline uint16_t mod(){ /* return the amount of items (the mod to iterate) */
			return canCancel() + getSize();
    1068:	ed 91       	ld	r30, X+
    106a:	fc 91       	ld	r31, X
    106c:	11 97       	sbiw	r26, 0x01	; 1
    106e:	04 80       	ldd	r0, Z+4	; 0x04
    1070:	f5 81       	ldd	r31, Z+5	; 0x05
    1072:	e0 2d       	mov	r30, r0
    1074:	cd 01       	movw	r24, r26
    1076:	09 95       	icall
    1078:	c8 0f       	add	r28, r24
    107a:	d1 1d       	adc	r29, r1
    107c:	cd 2b       	or	r28, r29
    107e:	51 f0       	breq	.+20     	; 0x1094 <_ZN12ItemSelector3runEv+0x4c>
	enableButtons();
    1080:	50 de       	rcall	.-864    	; 0xd22 <_ZN12ItemSelector13enableButtonsEv>
	led::LFPrintString("SELECT");
    1082:	8a e0       	ldi	r24, 0x0A	; 10
    1084:	91 e0       	ldi	r25, 0x01	; 1
    1086:	b9 d2       	rcall	.+1394   	; 0x15fa <_ZN3led13LFPrintStringEPKc>
	hardware::delay(1000);
    1088:	88 ee       	ldi	r24, 0xE8	; 232
    108a:	93 e0       	ldi	r25, 0x03	; 3
    108c:	3d d0       	rcall	.+122    	; 0x1108 <_ZN8hardware5delayEj>
	printItem();
    108e:	af df       	rcall	.-162    	; 0xfee <_ZN12ItemSelector9printItemEv>
	return true;
    1090:	81 e0       	ldi	r24, 0x01	; 1
    1092:	01 c0       	rjmp	.+2      	; 0x1096 <_ZN12ItemSelector3runEv+0x4e>
	led::LFPrintString(label);// this function should also exist with an secound parameter to set the string legth!!!#####
}

bool ItemSelector::run(){
	// no items:
	if (itemManager->isEmpty()) return false; //<<<<<< throw error
    1094:	80 e0       	ldi	r24, 0x00	; 0
	enableButtons();
	led::LFPrintString("SELECT");
	hardware::delay(1000);
	printItem();
	return true;
}
    1096:	df 91       	pop	r29
    1098:	cf 91       	pop	r28
    109a:	08 95       	ret

0000109c <_ZN11ItemManager16runItemProcedureEv>:
		} else {
		getItemLabelInternal(string_8_bytes);
	}
}

void ItemManager::runItemProcedure(){
    109c:	0f 93       	push	r16
    109e:	1f 93       	push	r17
    10a0:	cf 93       	push	r28
    10a2:	df 93       	push	r29
    10a4:	ec 01       	movw	r28, r24

class ItemManager {
	
	private:
		inline bool onCancelItem(){ /* return wehther the selected item is the cancel item*/
			return (canCancel()) && (static_cast<uint8_t> (position) == mod()-1);
    10a6:	8a 81       	ldd	r24, Y+2	; 0x02
    10a8:	9b 81       	ldd	r25, Y+3	; 0x03
    10aa:	89 2b       	or	r24, r25
    10ac:	89 f0       	breq	.+34     	; 0x10d0 <_ZN11ItemManager16runItemProcedureEv+0x34>
    10ae:	0c 81       	ldd	r16, Y+4	; 0x04
    10b0:	1d 81       	ldd	r17, Y+5	; 0x05
    10b2:	11 27       	eor	r17, r17
		}
		
		void (*cancelProcedure)(); /* pointer to void cancel function */
		
		inline uint16_t mod(){ /* return the amount of items (the mod to iterate) */
			return canCancel() + getSize();
    10b4:	e8 81       	ld	r30, Y
    10b6:	f9 81       	ldd	r31, Y+1	; 0x01
    10b8:	04 80       	ldd	r0, Z+4	; 0x04
    10ba:	f5 81       	ldd	r31, Z+5	; 0x05
    10bc:	e0 2d       	mov	r30, r0
    10be:	ce 01       	movw	r24, r28
    10c0:	09 95       	icall
    10c2:	90 e0       	ldi	r25, 0x00	; 0
	if (onCancelItem()){
    10c4:	08 17       	cp	r16, r24
    10c6:	19 07       	cpc	r17, r25
    10c8:	19 f4       	brne	.+6      	; 0x10d0 <_ZN11ItemManager16runItemProcedureEv+0x34>
		runCancelProcedure();
    10ca:	ce 01       	movw	r24, r28
    10cc:	d1 de       	rcall	.-606    	; 0xe70 <_ZN11ItemManager18runCancelProcedureEv>
    10ce:	07 c0       	rjmp	.+14     	; 0x10de <_ZN11ItemManager16runItemProcedureEv+0x42>
		} else {
		runItemProcedureInternal();
    10d0:	e8 81       	ld	r30, Y
    10d2:	f9 81       	ldd	r31, Y+1	; 0x01
    10d4:	02 80       	ldd	r0, Z+2	; 0x02
    10d6:	f3 81       	ldd	r31, Z+3	; 0x03
    10d8:	e0 2d       	mov	r30, r0
    10da:	ce 01       	movw	r24, r28
    10dc:	09 95       	icall
	}
	finalize();
    10de:	e8 81       	ld	r30, Y
    10e0:	f9 81       	ldd	r31, Y+1	; 0x01
    10e2:	00 84       	ldd	r0, Z+8	; 0x08
    10e4:	f1 85       	ldd	r31, Z+9	; 0x09
    10e6:	e0 2d       	mov	r30, r0
    10e8:	ce 01       	movw	r24, r28
    10ea:	09 95       	icall
}
    10ec:	df 91       	pop	r29
    10ee:	cf 91       	pop	r28
    10f0:	1f 91       	pop	r17
    10f2:	0f 91       	pop	r16
    10f4:	08 95       	ret

000010f6 <_ZN12ItemSelector7okay_upEv>:
	hardware::delay(300);
	enableEvent(makeEvent(button_okay,BUTTON_UP),okay_up);
}

void ItemSelector::okay_up(){
	led::printDotsOnly(0x00);
    10f6:	80 e0       	ldi	r24, 0x00	; 0
    10f8:	89 d2       	rcall	.+1298   	; 0x160c <_ZN3led13printDotsOnlyEh>
	itemManager->runItemProcedure();
    10fa:	80 91 68 02 	lds	r24, 0x0268	; 0x800268 <_ZN12ItemSelector11itemManagerE>
    10fe:	90 91 69 02 	lds	r25, 0x0269	; 0x800269 <_ZN12ItemSelector11itemManagerE+0x1>
    1102:	cc df       	rcall	.-104    	; 0x109c <_ZN11ItemManager16runItemProcedureEv>
	void setButtonsFree(); /* disable the NEXT, PREVIOUS & OKAY methods associated to the buttons (for internal use only) */
	
	void initialisation(uint8_t button_okay, uint8_t button_next, uint8_t button_prev, ItemManager* itemManager); /* init variables, the ItemManager* is just a pointer to an ItemManager. You have to care about construction, destruction yourself */
	
	inline void finalize(){ /* disable button events (for using programmer) */
		setButtonsFree();
    1104:	4d ce       	rjmp	.-870    	; 0xda0 <_ZN12ItemSelector14setButtonsFreeEv>
    1106:	08 95       	ret

00001108 <_ZN8hardware5delayEj>:
#include "f_ledline.h"

void hardware::delay(uint16_t ms){
	/* busy delay in ms */
	// <<<<<< refactor and check the function of delay
	for(uint16_t i = 0; i<ms; i+=10){
    1108:	00 97       	sbiw	r24, 0x00	; 0
    110a:	69 f0       	breq	.+26     	; 0x1126 <_ZN8hardware5delayEj+0x1e>
    110c:	20 e0       	ldi	r18, 0x00	; 0
    110e:	30 e0       	ldi	r19, 0x00	; 0
	#else
		//round up by default
		__ticks_dc = (uint32_t)(ceil(fabs(__tmp)));
	#endif

	__builtin_avr_delay_cycles(__ticks_dc);
    1110:	ef e3       	ldi	r30, 0x3F	; 63
    1112:	fc e9       	ldi	r31, 0x9C	; 156
    1114:	31 97       	sbiw	r30, 0x01	; 1
    1116:	f1 f7       	brne	.-4      	; 0x1114 <_ZN8hardware5delayEj+0xc>
    1118:	00 c0       	rjmp	.+0      	; 0x111a <_ZN8hardware5delayEj+0x12>
    111a:	00 00       	nop
    111c:	26 5f       	subi	r18, 0xF6	; 246
    111e:	3f 4f       	sbci	r19, 0xFF	; 255
    1120:	28 17       	cp	r18, r24
    1122:	39 07       	cpc	r19, r25
    1124:	a8 f3       	brcs	.-22     	; 0x1110 <_ZN8hardware5delayEj+0x8>
    1126:	08 95       	ret

00001128 <_ZN8hardware9isEEPNullEj>:
		_delay_ms(10);
	}
}

bool hardware::isEEPNull(uint16_t address){
    1128:	cf 93       	push	r28
    112a:	df 93       	push	r29
    112c:	ec 01       	movw	r28, r24
	/* return whether an eeprom address is out of range (NULL), throw an error if a non standard NULL address (!=EEPNULL) was used */
	if (	(address >= (1<<12))		&&		(address!=EEPNULL)		){
    112e:	90 51       	subi	r25, 0x10	; 16
    1130:	8f 3f       	cpi	r24, 0xFF	; 255
    1132:	9f 4e       	sbci	r25, 0xEF	; 239
    1134:	18 f4       	brcc	.+6      	; 0x113c <_ZN8hardware9isEEPNullEj+0x14>
		led::error(0);
    1136:	80 e0       	ldi	r24, 0x00	; 0
    1138:	90 e0       	ldi	r25, 0x00	; 0
    113a:	dc d2       	rcall	.+1464   	; 0x16f4 <_ZN3led5errorEj>
	}
	return (address >= (1<<12));
    113c:	81 e0       	ldi	r24, 0x01	; 1
    113e:	c1 15       	cp	r28, r1
    1140:	d0 41       	sbci	r29, 0x10	; 16
    1142:	08 f4       	brcc	.+2      	; 0x1146 <_ZN8hardware9isEEPNullEj+0x1e>
    1144:	80 e0       	ldi	r24, 0x00	; 0
}
    1146:	df 91       	pop	r29
    1148:	cf 91       	pop	r28
    114a:	08 95       	ret

0000114c <_ZN8hardware10copyStringEPcPKchb>:

void hardware::copyString(char* destination, const char* source, uint8_t count, bool nullTerminated){
    114c:	0f 93       	push	r16
    114e:	1f 93       	push	r17
    1150:	cf 93       	push	r28
    1152:	df 93       	push	r29
    1154:	8c 01       	movw	r16, r24
	uint8_t index = 0;
	while(index < count){
    1156:	44 23       	and	r20, r20
    1158:	b1 f0       	breq	.+44     	; 0x1186 <_ZN8hardware10copyStringEPcPKchb+0x3a>
		destination[index] = source[index];
    115a:	fb 01       	movw	r30, r22
    115c:	80 81       	ld	r24, Z
    115e:	f8 01       	movw	r30, r16
    1160:	80 83       	st	Z, r24
		if (source[index] =='\0') return;
    1162:	fb 01       	movw	r30, r22
    1164:	80 81       	ld	r24, Z
    1166:	88 23       	and	r24, r24
    1168:	a1 f0       	breq	.+40     	; 0x1192 <_ZN8hardware10copyStringEPcPKchb+0x46>
    116a:	d8 01       	movw	r26, r16
    116c:	11 96       	adiw	r26, 0x01	; 1
    116e:	31 96       	adiw	r30, 0x01	; 1
    1170:	90 e0       	ldi	r25, 0x00	; 0
    1172:	06 c0       	rjmp	.+12     	; 0x1180 <_ZN8hardware10copyStringEPcPKchb+0x34>
    1174:	ef 01       	movw	r28, r30
}

void hardware::copyString(char* destination, const char* source, uint8_t count, bool nullTerminated){
	uint8_t index = 0;
	while(index < count){
		destination[index] = source[index];
    1176:	31 91       	ld	r19, Z+
    1178:	3d 93       	st	X+, r19
		if (source[index] =='\0') return;
    117a:	38 81       	ld	r19, Y
    117c:	33 23       	and	r19, r19
    117e:	49 f0       	breq	.+18     	; 0x1192 <_ZN8hardware10copyStringEPcPKchb+0x46>
		++index;
    1180:	9f 5f       	subi	r25, 0xFF	; 255
	return (address >= (1<<12));
}

void hardware::copyString(char* destination, const char* source, uint8_t count, bool nullTerminated){
	uint8_t index = 0;
	while(index < count){
    1182:	94 13       	cpse	r25, r20
    1184:	f7 cf       	rjmp	.-18     	; 0x1174 <_ZN8hardware10copyStringEPcPKchb+0x28>
		destination[index] = source[index];
		if (source[index] =='\0') return;
		++index;
	}
	if (nullTerminated) {destination[index] = '\0';}
    1186:	22 23       	and	r18, r18
    1188:	21 f0       	breq	.+8      	; 0x1192 <_ZN8hardware10copyStringEPcPKchb+0x46>
    118a:	f8 01       	movw	r30, r16
    118c:	e4 0f       	add	r30, r20
    118e:	f1 1d       	adc	r31, r1
    1190:	10 82       	st	Z, r1
}
    1192:	df 91       	pop	r29
    1194:	cf 91       	pop	r28
    1196:	1f 91       	pop	r17
    1198:	0f 91       	pop	r16
    119a:	08 95       	ret

0000119c <_ZN3led5latchEv>:
	led::printSign(sign);
}

void led::printSignDottableExplicit(char sign, const bool dot){
	led::pushByteVisible(  (led::signCode(sign) & (~led::DOT))    |    (dot * led::DOT)  );
}
    119c:	9b b3       	in	r25, 0x1b	; 27
    119e:	84 e0       	ldi	r24, 0x04	; 4
    11a0:	98 27       	eor	r25, r24
    11a2:	9b bb       	out	0x1b, r25	; 27
    11a4:	9b b3       	in	r25, 0x1b	; 27
    11a6:	89 27       	eor	r24, r25
    11a8:	8b bb       	out	0x1b, r24	; 27
    11aa:	08 95       	ret

000011ac <_ZN3led13pushBitInternEb>:
    11ac:	9b b3       	in	r25, 0x1b	; 27
    11ae:	9e 7f       	andi	r25, 0xFE	; 254
    11b0:	89 2b       	or	r24, r25
    11b2:	8b bb       	out	0x1b, r24	; 27
    11b4:	9b b3       	in	r25, 0x1b	; 27
    11b6:	82 e0       	ldi	r24, 0x02	; 2
    11b8:	98 27       	eor	r25, r24
    11ba:	9b bb       	out	0x1b, r25	; 27
    11bc:	9b b3       	in	r25, 0x1b	; 27
    11be:	89 27       	eor	r24, r25
    11c0:	8b bb       	out	0x1b, r24	; 27
    11c2:	08 95       	ret

000011c4 <_ZN3led7pushBitEb>:
    11c4:	af 92       	push	r10
    11c6:	bf 92       	push	r11
    11c8:	cf 92       	push	r12
    11ca:	df 92       	push	r13
    11cc:	ef 92       	push	r14
    11ce:	ff 92       	push	r15
    11d0:	0f 93       	push	r16
    11d2:	1f 93       	push	r17
    11d4:	e8 2f       	mov	r30, r24
    11d6:	20 91 88 02 	lds	r18, 0x0288	; 0x800288 <_ZL9_LEDLINE_>
    11da:	30 91 89 02 	lds	r19, 0x0289	; 0x800289 <_ZL9_LEDLINE_+0x1>
    11de:	40 91 8a 02 	lds	r20, 0x028A	; 0x80028a <_ZL9_LEDLINE_+0x2>
    11e2:	50 91 8b 02 	lds	r21, 0x028B	; 0x80028b <_ZL9_LEDLINE_+0x3>
    11e6:	60 91 8c 02 	lds	r22, 0x028C	; 0x80028c <_ZL9_LEDLINE_+0x4>
    11ea:	70 91 8d 02 	lds	r23, 0x028D	; 0x80028d <_ZL9_LEDLINE_+0x5>
    11ee:	80 91 8e 02 	lds	r24, 0x028E	; 0x80028e <_ZL9_LEDLINE_+0x6>
    11f2:	90 91 8f 02 	lds	r25, 0x028F	; 0x80028f <_ZL9_LEDLINE_+0x7>
    11f6:	01 e0       	ldi	r16, 0x01	; 1
    11f8:	ac d5       	rcall	.+2904   	; 0x1d52 <__ashldi3>
    11fa:	a2 2e       	mov	r10, r18
    11fc:	b3 2e       	mov	r11, r19
    11fe:	c4 2e       	mov	r12, r20
    1200:	d5 2e       	mov	r13, r21
    1202:	e6 2e       	mov	r14, r22
    1204:	f7 2e       	mov	r15, r23
    1206:	08 2f       	mov	r16, r24
    1208:	19 2f       	mov	r17, r25
    120a:	2e 2f       	mov	r18, r30
    120c:	30 e0       	ldi	r19, 0x00	; 0
    120e:	40 e0       	ldi	r20, 0x00	; 0
    1210:	50 e0       	ldi	r21, 0x00	; 0
    1212:	60 e0       	ldi	r22, 0x00	; 0
    1214:	70 e0       	ldi	r23, 0x00	; 0
    1216:	80 e0       	ldi	r24, 0x00	; 0
    1218:	90 e0       	ldi	r25, 0x00	; 0
    121a:	d2 d5       	rcall	.+2980   	; 0x1dc0 <__adddi3>
    121c:	20 93 88 02 	sts	0x0288, r18	; 0x800288 <_ZL9_LEDLINE_>
    1220:	30 93 89 02 	sts	0x0289, r19	; 0x800289 <_ZL9_LEDLINE_+0x1>
    1224:	40 93 8a 02 	sts	0x028A, r20	; 0x80028a <_ZL9_LEDLINE_+0x2>
    1228:	50 93 8b 02 	sts	0x028B, r21	; 0x80028b <_ZL9_LEDLINE_+0x3>
    122c:	60 93 8c 02 	sts	0x028C, r22	; 0x80028c <_ZL9_LEDLINE_+0x4>
    1230:	70 93 8d 02 	sts	0x028D, r23	; 0x80028d <_ZL9_LEDLINE_+0x5>
    1234:	80 93 8e 02 	sts	0x028E, r24	; 0x80028e <_ZL9_LEDLINE_+0x6>
    1238:	90 93 8f 02 	sts	0x028F, r25	; 0x80028f <_ZL9_LEDLINE_+0x7>
    123c:	8e 2f       	mov	r24, r30
    123e:	b6 df       	rcall	.-148    	; 0x11ac <_ZN3led13pushBitInternEb>
    1240:	1f 91       	pop	r17
    1242:	0f 91       	pop	r16
    1244:	ff 90       	pop	r15
    1246:	ef 90       	pop	r14
    1248:	df 90       	pop	r13
    124a:	cf 90       	pop	r12
    124c:	bf 90       	pop	r11
    124e:	af 90       	pop	r10
    1250:	08 95       	ret

00001252 <_ZN3led8pushByteEh>:
    1252:	af 92       	push	r10
    1254:	bf 92       	push	r11
    1256:	cf 92       	push	r12
    1258:	df 92       	push	r13
    125a:	ef 92       	push	r14
    125c:	ff 92       	push	r15
    125e:	0f 93       	push	r16
    1260:	1f 93       	push	r17
    1262:	cf 93       	push	r28
    1264:	df 93       	push	r29
    1266:	e8 2f       	mov	r30, r24
    1268:	20 91 88 02 	lds	r18, 0x0288	; 0x800288 <_ZL9_LEDLINE_>
    126c:	30 91 89 02 	lds	r19, 0x0289	; 0x800289 <_ZL9_LEDLINE_+0x1>
    1270:	40 91 8a 02 	lds	r20, 0x028A	; 0x80028a <_ZL9_LEDLINE_+0x2>
    1274:	50 91 8b 02 	lds	r21, 0x028B	; 0x80028b <_ZL9_LEDLINE_+0x3>
    1278:	60 91 8c 02 	lds	r22, 0x028C	; 0x80028c <_ZL9_LEDLINE_+0x4>
    127c:	70 91 8d 02 	lds	r23, 0x028D	; 0x80028d <_ZL9_LEDLINE_+0x5>
    1280:	80 91 8e 02 	lds	r24, 0x028E	; 0x80028e <_ZL9_LEDLINE_+0x6>
    1284:	90 91 8f 02 	lds	r25, 0x028F	; 0x80028f <_ZL9_LEDLINE_+0x7>
    1288:	08 e0       	ldi	r16, 0x08	; 8
    128a:	63 d5       	rcall	.+2758   	; 0x1d52 <__ashldi3>
    128c:	a2 2e       	mov	r10, r18
    128e:	b3 2e       	mov	r11, r19
    1290:	c4 2e       	mov	r12, r20
    1292:	d5 2e       	mov	r13, r21
    1294:	e6 2e       	mov	r14, r22
    1296:	f7 2e       	mov	r15, r23
    1298:	08 2f       	mov	r16, r24
    129a:	19 2f       	mov	r17, r25
    129c:	2e 2f       	mov	r18, r30
    129e:	30 e0       	ldi	r19, 0x00	; 0
    12a0:	40 e0       	ldi	r20, 0x00	; 0
    12a2:	50 e0       	ldi	r21, 0x00	; 0
    12a4:	60 e0       	ldi	r22, 0x00	; 0
    12a6:	70 e0       	ldi	r23, 0x00	; 0
    12a8:	80 e0       	ldi	r24, 0x00	; 0
    12aa:	90 e0       	ldi	r25, 0x00	; 0
    12ac:	89 d5       	rcall	.+2834   	; 0x1dc0 <__adddi3>
    12ae:	20 93 88 02 	sts	0x0288, r18	; 0x800288 <_ZL9_LEDLINE_>
    12b2:	30 93 89 02 	sts	0x0289, r19	; 0x800289 <_ZL9_LEDLINE_+0x1>
    12b6:	40 93 8a 02 	sts	0x028A, r20	; 0x80028a <_ZL9_LEDLINE_+0x2>
    12ba:	50 93 8b 02 	sts	0x028B, r21	; 0x80028b <_ZL9_LEDLINE_+0x3>
    12be:	60 93 8c 02 	sts	0x028C, r22	; 0x80028c <_ZL9_LEDLINE_+0x4>
    12c2:	70 93 8d 02 	sts	0x028D, r23	; 0x80028d <_ZL9_LEDLINE_+0x5>
    12c6:	80 93 8e 02 	sts	0x028E, r24	; 0x80028e <_ZL9_LEDLINE_+0x6>
    12ca:	90 93 8f 02 	sts	0x028F, r25	; 0x80028f <_ZL9_LEDLINE_+0x7>
    12ce:	c7 e0       	ldi	r28, 0x07	; 7
    12d0:	d0 e0       	ldi	r29, 0x00	; 0
    12d2:	0e 2f       	mov	r16, r30
    12d4:	10 e0       	ldi	r17, 0x00	; 0
    12d6:	c8 01       	movw	r24, r16
    12d8:	0c 2e       	mov	r0, r28
    12da:	02 c0       	rjmp	.+4      	; 0x12e0 <_ZN3led8pushByteEh+0x8e>
    12dc:	95 95       	asr	r25
    12de:	87 95       	ror	r24
    12e0:	0a 94       	dec	r0
    12e2:	e2 f7       	brpl	.-8      	; 0x12dc <_ZN3led8pushByteEh+0x8a>
    12e4:	81 70       	andi	r24, 0x01	; 1
    12e6:	62 df       	rcall	.-316    	; 0x11ac <_ZN3led13pushBitInternEb>
    12e8:	21 97       	sbiw	r28, 0x01	; 1
    12ea:	a8 f7       	brcc	.-22     	; 0x12d6 <_ZN3led8pushByteEh+0x84>
    12ec:	df 91       	pop	r29
    12ee:	cf 91       	pop	r28
    12f0:	1f 91       	pop	r17
    12f2:	0f 91       	pop	r16
    12f4:	ff 90       	pop	r15
    12f6:	ef 90       	pop	r14
    12f8:	df 90       	pop	r13
    12fa:	cf 90       	pop	r12
    12fc:	bf 90       	pop	r11
    12fe:	af 90       	pop	r10
    1300:	08 95       	ret

00001302 <_ZN3led6push64Ey>:
    1302:	7f 92       	push	r7
    1304:	8f 92       	push	r8
    1306:	9f 92       	push	r9
    1308:	af 92       	push	r10
    130a:	bf 92       	push	r11
    130c:	cf 92       	push	r12
    130e:	df 92       	push	r13
    1310:	ef 92       	push	r14
    1312:	ff 92       	push	r15
    1314:	0f 93       	push	r16
    1316:	1f 93       	push	r17
    1318:	cf 93       	push	r28
    131a:	df 93       	push	r29
    131c:	82 2e       	mov	r8, r18
    131e:	93 2e       	mov	r9, r19
    1320:	a4 2e       	mov	r10, r20
    1322:	b5 2e       	mov	r11, r21
    1324:	c6 2e       	mov	r12, r22
    1326:	d7 2e       	mov	r13, r23
    1328:	08 2f       	mov	r16, r24
    132a:	19 2f       	mov	r17, r25
    132c:	20 93 88 02 	sts	0x0288, r18	; 0x800288 <_ZL9_LEDLINE_>
    1330:	30 93 89 02 	sts	0x0289, r19	; 0x800289 <_ZL9_LEDLINE_+0x1>
    1334:	40 93 8a 02 	sts	0x028A, r20	; 0x80028a <_ZL9_LEDLINE_+0x2>
    1338:	50 93 8b 02 	sts	0x028B, r21	; 0x80028b <_ZL9_LEDLINE_+0x3>
    133c:	60 93 8c 02 	sts	0x028C, r22	; 0x80028c <_ZL9_LEDLINE_+0x4>
    1340:	70 93 8d 02 	sts	0x028D, r23	; 0x80028d <_ZL9_LEDLINE_+0x5>
    1344:	80 93 8e 02 	sts	0x028E, r24	; 0x80028e <_ZL9_LEDLINE_+0x6>
    1348:	90 93 8f 02 	sts	0x028F, r25	; 0x80028f <_ZL9_LEDLINE_+0x7>
    134c:	cf e3       	ldi	r28, 0x3F	; 63
    134e:	d0 e0       	ldi	r29, 0x00	; 0
    1350:	ee 24       	eor	r14, r14
    1352:	e3 94       	inc	r14
    1354:	f1 2c       	mov	r15, r1
    1356:	77 24       	eor	r7, r7
    1358:	73 94       	inc	r7
    135a:	f7 01       	movw	r30, r14
    135c:	0c 2e       	mov	r0, r28
    135e:	02 c0       	rjmp	.+4      	; 0x1364 <_ZN3led6push64Ey+0x62>
    1360:	ee 0f       	add	r30, r30
    1362:	ff 1f       	adc	r31, r31
    1364:	0a 94       	dec	r0
    1366:	e2 f7       	brpl	.-8      	; 0x1360 <_ZN3led6push64Ey+0x5e>
    1368:	9f 2f       	mov	r25, r31
    136a:	99 0f       	add	r25, r25
    136c:	99 0b       	sbc	r25, r25
    136e:	28 2d       	mov	r18, r8
    1370:	2e 23       	and	r18, r30
    1372:	39 2d       	mov	r19, r9
    1374:	3f 23       	and	r19, r31
    1376:	49 2f       	mov	r20, r25
    1378:	4a 21       	and	r20, r10
    137a:	59 2f       	mov	r21, r25
    137c:	5b 21       	and	r21, r11
    137e:	69 2f       	mov	r22, r25
    1380:	6c 21       	and	r22, r12
    1382:	79 2f       	mov	r23, r25
    1384:	7d 21       	and	r23, r13
    1386:	e7 2d       	mov	r30, r7
    1388:	89 2f       	mov	r24, r25
    138a:	80 23       	and	r24, r16
    138c:	91 23       	and	r25, r17
    138e:	a0 e0       	ldi	r26, 0x00	; 0
    1390:	20 d5       	rcall	.+2624   	; 0x1dd2 <__cmpdi2_s8>
    1392:	09 f4       	brne	.+2      	; 0x1396 <_ZN3led6push64Ey+0x94>
    1394:	e0 e0       	ldi	r30, 0x00	; 0
    1396:	8e 2f       	mov	r24, r30
    1398:	09 df       	rcall	.-494    	; 0x11ac <_ZN3led13pushBitInternEb>
    139a:	21 97       	sbiw	r28, 0x01	; 1
    139c:	f0 f6       	brcc	.-68     	; 0x135a <_ZN3led6push64Ey+0x58>
    139e:	df 91       	pop	r29
    13a0:	cf 91       	pop	r28
    13a2:	1f 91       	pop	r17
    13a4:	0f 91       	pop	r16
    13a6:	ff 90       	pop	r15
    13a8:	ef 90       	pop	r14
    13aa:	df 90       	pop	r13
    13ac:	cf 90       	pop	r12
    13ae:	bf 90       	pop	r11
    13b0:	af 90       	pop	r10
    13b2:	9f 90       	pop	r9
    13b4:	8f 90       	pop	r8
    13b6:	7f 90       	pop	r7
    13b8:	08 95       	ret

000013ba <_ZN3led10pushMemoryEv>:
    13ba:	20 91 88 02 	lds	r18, 0x0288	; 0x800288 <_ZL9_LEDLINE_>
    13be:	30 91 89 02 	lds	r19, 0x0289	; 0x800289 <_ZL9_LEDLINE_+0x1>
    13c2:	40 91 8a 02 	lds	r20, 0x028A	; 0x80028a <_ZL9_LEDLINE_+0x2>
    13c6:	50 91 8b 02 	lds	r21, 0x028B	; 0x80028b <_ZL9_LEDLINE_+0x3>
    13ca:	60 91 8c 02 	lds	r22, 0x028C	; 0x80028c <_ZL9_LEDLINE_+0x4>
    13ce:	70 91 8d 02 	lds	r23, 0x028D	; 0x80028d <_ZL9_LEDLINE_+0x5>
    13d2:	80 91 8e 02 	lds	r24, 0x028E	; 0x80028e <_ZL9_LEDLINE_+0x6>
    13d6:	90 91 8f 02 	lds	r25, 0x028F	; 0x80028f <_ZL9_LEDLINE_+0x7>
    13da:	93 df       	rcall	.-218    	; 0x1302 <_ZN3led6push64Ey>
    13dc:	df ce       	rjmp	.-578    	; 0x119c <_ZN3led5latchEv>
    13de:	08 95       	ret

000013e0 <_ZN3led15pushByteVisibleEh>:
    13e0:	38 df       	rcall	.-400    	; 0x1252 <_ZN3led8pushByteEh>
    13e2:	dc ce       	rjmp	.-584    	; 0x119c <_ZN3led5latchEv>
    13e4:	08 95       	ret

000013e6 <_ZN3led8isDottedEc>:
    13e6:	88 1f       	adc	r24, r24
    13e8:	88 27       	eor	r24, r24
    13ea:	88 1f       	adc	r24, r24
    13ec:	08 95       	ret

000013ee <_ZN3led6setDotEPcb>:
    13ee:	fc 01       	movw	r30, r24
    13f0:	90 81       	ld	r25, Z
    13f2:	60 fb       	bst	r22, 0
    13f4:	97 f9       	bld	r25, 7
    13f6:	90 83       	st	Z, r25
    13f8:	08 95       	ret

000013fa <_ZN3led8signCodeEc>:
    13fa:	cf 93       	push	r28
    13fc:	df 93       	push	r29
    13fe:	cd b7       	in	r28, 0x3d	; 61
    1400:	de b7       	in	r29, 0x3e	; 62
    1402:	c5 54       	subi	r28, 0x45	; 69
    1404:	d1 09       	sbc	r29, r1
    1406:	0f b6       	in	r0, 0x3f	; 63
    1408:	f8 94       	cli
    140a:	de bf       	out	0x3e, r29	; 62
    140c:	0f be       	out	0x3f, r0	; 63
    140e:	cd bf       	out	0x3d, r28	; 61
    1410:	e8 2f       	mov	r30, r24
    1412:	ef 77       	andi	r30, 0x7F	; 127
    1414:	f0 e0       	ldi	r31, 0x00	; 0
    1416:	ea 30       	cpi	r30, 0x0A	; 10
    1418:	f1 05       	cpc	r31, r1
    141a:	a9 f0       	breq	.+42     	; 0x1446 <_ZN3led8signCodeEc+0x4c>
    141c:	e1 32       	cpi	r30, 0x21	; 33
    141e:	f1 05       	cpc	r31, r1
    1420:	18 f4       	brcc	.+6      	; 0x1428 <_ZN3led8signCodeEc+0x2e>
    1422:	80 78       	andi	r24, 0x80	; 128
    1424:	80 95       	com	r24
    1426:	10 c0       	rjmp	.+32     	; 0x1448 <_ZN3led8signCodeEc+0x4e>
    1428:	e1 36       	cpi	r30, 0x61	; 97
    142a:	f1 05       	cpc	r31, r1
    142c:	28 f0       	brcs	.+10     	; 0x1438 <_ZN3led8signCodeEc+0x3e>
    142e:	eb 37       	cpi	r30, 0x7B	; 123
    1430:	f1 05       	cpc	r31, r1
    1432:	08 f0       	brcs	.+2      	; 0x1436 <_ZN3led8signCodeEc+0x3c>
    1434:	36 96       	adiw	r30, 0x06	; 6
    1436:	77 97       	sbiw	r30, 0x17	; 23
    1438:	ec 0f       	add	r30, r28
    143a:	fd 1f       	adc	r31, r29
    143c:	b0 97       	sbiw	r30, 0x20	; 32
    143e:	e4 91       	lpm	r30, Z
    1440:	80 78       	andi	r24, 0x80	; 128
    1442:	8e 27       	eor	r24, r30
    1444:	01 c0       	rjmp	.+2      	; 0x1448 <_ZN3led8signCodeEc+0x4e>
    1446:	80 e0       	ldi	r24, 0x00	; 0
    1448:	cb 5b       	subi	r28, 0xBB	; 187
    144a:	df 4f       	sbci	r29, 0xFF	; 255
    144c:	0f b6       	in	r0, 0x3f	; 63
    144e:	f8 94       	cli
    1450:	de bf       	out	0x3e, r29	; 62
    1452:	0f be       	out	0x3f, r0	; 63
    1454:	cd bf       	out	0x3d, r28	; 61
    1456:	df 91       	pop	r29
    1458:	cf 91       	pop	r28
    145a:	08 95       	ret

0000145c <_ZN3led9printSignEc>:
    145c:	ce df       	rcall	.-100    	; 0x13fa <_ZN3led8signCodeEc>
    145e:	c0 cf       	rjmp	.-128    	; 0x13e0 <_ZN3led15pushByteVisibleEh>
    1460:	08 95       	ret

00001462 <_ZN3led10printDigitEh>:
    1462:	80 5d       	subi	r24, 0xD0	; 208
    1464:	fb cf       	rjmp	.-10     	; 0x145c <_ZN3led9printSignEc>
    1466:	08 95       	ret

00001468 <_ZN3led8printIntExb>:
    1468:	2f 92       	push	r2
    146a:	3f 92       	push	r3
    146c:	4f 92       	push	r4
    146e:	5f 92       	push	r5
    1470:	6f 92       	push	r6
    1472:	7f 92       	push	r7
    1474:	8f 92       	push	r8
    1476:	9f 92       	push	r9
    1478:	af 92       	push	r10
    147a:	bf 92       	push	r11
    147c:	cf 92       	push	r12
    147e:	df 92       	push	r13
    1480:	ef 92       	push	r14
    1482:	ff 92       	push	r15
    1484:	0f 93       	push	r16
    1486:	1f 93       	push	r17
    1488:	cf 93       	push	r28
    148a:	df 93       	push	r29
    148c:	00 d0       	rcall	.+0      	; 0x148e <_ZN3led8printIntExb+0x26>
    148e:	1f 92       	push	r1
    1490:	cd b7       	in	r28, 0x3d	; 61
    1492:	de b7       	in	r29, 0x3e	; 62
    1494:	2b 83       	std	Y+3, r18	; 0x03
    1496:	3a 83       	std	Y+2, r19	; 0x02
    1498:	34 2e       	mov	r3, r20
    149a:	45 2e       	mov	r4, r21
    149c:	56 2e       	mov	r5, r22
    149e:	67 2e       	mov	r6, r23
    14a0:	78 2e       	mov	r7, r24
    14a2:	89 2e       	mov	r8, r25
    14a4:	0f e3       	ldi	r16, 0x3F	; 63
    14a6:	70 d4       	rcall	.+2272   	; 0x1d88 <__lshrdi3>
    14a8:	92 2e       	mov	r9, r18
    14aa:	22 2e       	mov	r2, r18
    14ac:	22 23       	and	r18, r18
    14ae:	11 f0       	breq	.+4      	; 0x14b4 <_ZN3led8printIntExb+0x4c>
    14b0:	8d e2       	ldi	r24, 0x2D	; 45
    14b2:	d4 df       	rcall	.-88     	; 0x145c <_ZN3led9printSignEc>
    14b4:	2b 81       	ldd	r18, Y+3	; 0x03
    14b6:	3a 81       	ldd	r19, Y+2	; 0x02
    14b8:	c9 01       	movw	r24, r18
    14ba:	99 23       	and	r25, r25
    14bc:	24 f4       	brge	.+8      	; 0x14c6 <_ZN3led8printIntExb+0x5e>
    14be:	88 27       	eor	r24, r24
    14c0:	99 27       	eor	r25, r25
    14c2:	82 1b       	sub	r24, r18
    14c4:	93 0b       	sbc	r25, r19
    14c6:	6a e0       	ldi	r22, 0x0A	; 10
    14c8:	70 e0       	ldi	r23, 0x00	; 0
    14ca:	60 d3       	rcall	.+1728   	; 0x1b8c <__divmodhi4>
    14cc:	89 83       	std	Y+1, r24	; 0x01
    14ce:	0f 2e       	mov	r0, r31
    14d0:	fa e0       	ldi	r31, 0x0A	; 10
    14d2:	af 2e       	mov	r10, r31
    14d4:	f0 2d       	mov	r31, r0
    14d6:	b1 2c       	mov	r11, r1
    14d8:	c1 2c       	mov	r12, r1
    14da:	d1 2c       	mov	r13, r1
    14dc:	e1 2c       	mov	r14, r1
    14de:	f1 2c       	mov	r15, r1
    14e0:	00 e0       	ldi	r16, 0x00	; 0
    14e2:	10 e0       	ldi	r17, 0x00	; 0
    14e4:	2b 81       	ldd	r18, Y+3	; 0x03
    14e6:	3a 81       	ldd	r19, Y+2	; 0x02
    14e8:	43 2d       	mov	r20, r3
    14ea:	54 2d       	mov	r21, r4
    14ec:	65 2d       	mov	r22, r5
    14ee:	76 2d       	mov	r23, r6
    14f0:	87 2d       	mov	r24, r7
    14f2:	98 2d       	mov	r25, r8
    14f4:	60 d3       	rcall	.+1728   	; 0x1bb6 <__divdi3>
    14f6:	82 2f       	mov	r24, r18
    14f8:	93 2f       	mov	r25, r19
    14fa:	00 97       	sbiw	r24, 0x00	; 0
    14fc:	a9 f0       	breq	.+42     	; 0x1528 <_ZN3led8printIntExb+0xc0>
    14fe:	ac 01       	movw	r20, r24
    1500:	55 23       	and	r21, r21
    1502:	24 f4       	brge	.+8      	; 0x150c <_ZN3led8printIntExb+0xa4>
    1504:	44 27       	eor	r20, r20
    1506:	55 27       	eor	r21, r21
    1508:	48 1b       	sub	r20, r24
    150a:	59 0b       	sbc	r21, r25
    150c:	95 2f       	mov	r25, r21
    150e:	99 0f       	add	r25, r25
    1510:	99 0b       	sbc	r25, r25
    1512:	00 e0       	ldi	r16, 0x00	; 0
    1514:	24 2f       	mov	r18, r20
    1516:	35 2f       	mov	r19, r21
    1518:	49 2f       	mov	r20, r25
    151a:	59 2f       	mov	r21, r25
    151c:	69 2f       	mov	r22, r25
    151e:	79 2f       	mov	r23, r25
    1520:	89 2f       	mov	r24, r25
    1522:	a2 df       	rcall	.-188    	; 0x1468 <_ZN3led8printIntExb>
    1524:	29 2c       	mov	r2, r9
    1526:	28 0e       	add	r2, r24
    1528:	89 81       	ldd	r24, Y+1	; 0x01
    152a:	9b df       	rcall	.-202    	; 0x1462 <_ZN3led10printDigitEh>
    152c:	81 e0       	ldi	r24, 0x01	; 1
    152e:	82 0d       	add	r24, r2
    1530:	0f 90       	pop	r0
    1532:	0f 90       	pop	r0
    1534:	0f 90       	pop	r0
    1536:	df 91       	pop	r29
    1538:	cf 91       	pop	r28
    153a:	1f 91       	pop	r17
    153c:	0f 91       	pop	r16
    153e:	ff 90       	pop	r15
    1540:	ef 90       	pop	r14
    1542:	df 90       	pop	r13
    1544:	cf 90       	pop	r12
    1546:	bf 90       	pop	r11
    1548:	af 90       	pop	r10
    154a:	9f 90       	pop	r9
    154c:	8f 90       	pop	r8
    154e:	7f 90       	pop	r7
    1550:	6f 90       	pop	r6
    1552:	5f 90       	pop	r5
    1554:	4f 90       	pop	r4
    1556:	3f 90       	pop	r3
    1558:	2f 90       	pop	r2
    155a:	08 95       	ret

0000155c <_ZN3led17printSignDottableEcb>:
    155c:	cf 93       	push	r28
    155e:	df 93       	push	r29
    1560:	1f 92       	push	r1
    1562:	cd b7       	in	r28, 0x3d	; 61
    1564:	de b7       	in	r29, 0x3e	; 62
    1566:	89 83       	std	Y+1, r24	; 0x01
    1568:	ce 01       	movw	r24, r28
    156a:	01 96       	adiw	r24, 0x01	; 1
    156c:	40 df       	rcall	.-384    	; 0x13ee <_ZN3led6setDotEPcb>
    156e:	89 81       	ldd	r24, Y+1	; 0x01
    1570:	75 df       	rcall	.-278    	; 0x145c <_ZN3led9printSignEc>
    1572:	0f 90       	pop	r0
    1574:	df 91       	pop	r29
    1576:	cf 91       	pop	r28
    1578:	08 95       	ret

0000157a <_ZN3led11printStringEPKc>:

void led::printString(const char * const string){
    157a:	0f 93       	push	r16
    157c:	1f 93       	push	r17
    157e:	cf 93       	push	r28
    1580:	fc 01       	movw	r30, r24
	uint8_t i {0};
	while (string[i]!='\0'){
    1582:	80 81       	ld	r24, Z
    1584:	88 23       	and	r24, r24
    1586:	51 f0       	breq	.+20     	; 0x159c <_ZN3led11printStringEPKc+0x22>
    1588:	8f 01       	movw	r16, r30
    158a:	c0 e0       	ldi	r28, 0x00	; 0
		led::printSign(string[i]);
    158c:	67 df       	rcall	.-306    	; 0x145c <_ZN3led9printSignEc>
		++i;
    158e:	cf 5f       	subi	r28, 0xFF	; 255
	led::pushByteVisible(  (led::signCode(sign) & (~led::DOT))    |    (dot * led::DOT)  );
}

void led::printString(const char * const string){
	uint8_t i {0};
	while (string[i]!='\0'){
    1590:	f8 01       	movw	r30, r16
    1592:	ec 0f       	add	r30, r28
    1594:	f1 1d       	adc	r31, r1
    1596:	80 81       	ld	r24, Z
    1598:	81 11       	cpse	r24, r1
    159a:	f8 cf       	rjmp	.-16     	; 0x158c <_ZN3led11printStringEPKc+0x12>
		led::printSign(string[i]);
		++i;
	}
}
    159c:	cf 91       	pop	r28
    159e:	1f 91       	pop	r17
    15a0:	0f 91       	pop	r16
    15a2:	08 95       	ret

000015a4 <_ZN3led5clearEv>:

void led::clear(){
    15a4:	cf 93       	push	r28
	for(uint8_t i = 0; i<LINELENGTH; ++i){
    15a6:	80 91 90 02 	lds	r24, 0x0290	; 0x800290 <_ZL10LINELENGTH>
    15aa:	88 23       	and	r24, r24
    15ac:	41 f0       	breq	.+16     	; 0x15be <_ZN3led5clearEv+0x1a>
    15ae:	c0 e0       	ldi	r28, 0x00	; 0
		led::pushByte(0);
    15b0:	80 e0       	ldi	r24, 0x00	; 0
    15b2:	4f de       	rcall	.-866    	; 0x1252 <_ZN3led8pushByteEh>
		++i;
	}
}

void led::clear(){
	for(uint8_t i = 0; i<LINELENGTH; ++i){
    15b4:	cf 5f       	subi	r28, 0xFF	; 255
    15b6:	80 91 90 02 	lds	r24, 0x0290	; 0x800290 <_ZL10LINELENGTH>
    15ba:	c8 17       	cp	r28, r24
    15bc:	c8 f3       	brcs	.-14     	; 0x15b0 <_ZN3led5clearEv+0xc>
		led::pushByte(0);
	}
	led::latch();
    15be:	ee dd       	rcall	.-1060   	; 0x119c <_ZN3led5latchEv>
}
    15c0:	cf 91       	pop	r28
    15c2:	08 95       	ret

000015c4 <_ZN3led4initEh>:
static uint8_t LINELENGTH; // is set by the init function
static uint64_t _LEDLINE_; // contains the current state which is displayed on the led line and which was pushed to it somewhere in past.
							// functions that modify output have to update this value.


void led::init(const uint8_t lineLength){
    15c4:	cf 93       	push	r28
    15c6:	c8 2f       	mov	r28, r24
	DDRA = 0b00000111; // LATCH BIT ::: CLOCK BIT ::: DATA BIT
    15c8:	87 e0       	ldi	r24, 0x07	; 7
    15ca:	8a bb       	out	0x1a, r24	; 26
	PORTA = 0b11111000;
    15cc:	88 ef       	ldi	r24, 0xF8	; 248
    15ce:	8b bb       	out	0x1b, r24	; 27
	_LEDLINE_ = 0;
    15d0:	10 92 88 02 	sts	0x0288, r1	; 0x800288 <_ZL9_LEDLINE_>
    15d4:	10 92 89 02 	sts	0x0289, r1	; 0x800289 <_ZL9_LEDLINE_+0x1>
    15d8:	10 92 8a 02 	sts	0x028A, r1	; 0x80028a <_ZL9_LEDLINE_+0x2>
    15dc:	10 92 8b 02 	sts	0x028B, r1	; 0x80028b <_ZL9_LEDLINE_+0x3>
    15e0:	10 92 8c 02 	sts	0x028C, r1	; 0x80028c <_ZL9_LEDLINE_+0x4>
    15e4:	10 92 8d 02 	sts	0x028D, r1	; 0x80028d <_ZL9_LEDLINE_+0x5>
    15e8:	10 92 8e 02 	sts	0x028E, r1	; 0x80028e <_ZL9_LEDLINE_+0x6>
    15ec:	10 92 8f 02 	sts	0x028F, r1	; 0x80028f <_ZL9_LEDLINE_+0x7>
	led::clear();
    15f0:	d9 df       	rcall	.-78     	; 0x15a4 <_ZN3led5clearEv>
	LINELENGTH = lineLength;
    15f2:	c0 93 90 02 	sts	0x0290, r28	; 0x800290 <_ZL10LINELENGTH>
}
    15f6:	cf 91       	pop	r28
    15f8:	08 95       	ret

000015fa <_ZN3led13LFPrintStringEPKc>:
		led::pushByte(0);
	}
	led::latch();
}

void led::LFPrintString(const char* const string){
    15fa:	cf 93       	push	r28
    15fc:	df 93       	push	r29
    15fe:	ec 01       	movw	r28, r24
	//////////////////////////////////////////////////////////////////////////
	
	//we dont have more than one line in our controller
	// for our controller we want to be flash memory friendly and not fast so we do:
	// <<< change this back some day
	led::clear();
    1600:	d1 df       	rcall	.-94     	; 0x15a4 <_ZN3led5clearEv>
	led::printString(string);
    1602:	ce 01       	movw	r24, r28
    1604:	ba df       	rcall	.-140    	; 0x157a <_ZN3led11printStringEPKc>
}
    1606:	df 91       	pop	r29
    1608:	cf 91       	pop	r28
    160a:	08 95       	ret

0000160c <_ZN3led13printDotsOnlyEh>:

void led::printDotsOnly(const uint8_t dotCode){//<<<<<< this function isnt ready for scalable linelength, please change sometime
    160c:	9f 92       	push	r9
    160e:	af 92       	push	r10
    1610:	bf 92       	push	r11
    1612:	cf 92       	push	r12
    1614:	df 92       	push	r13
    1616:	ef 92       	push	r14
    1618:	ff 92       	push	r15
    161a:	0f 93       	push	r16
    161c:	1f 93       	push	r17
    161e:	cf 93       	push	r28
    1620:	df 93       	push	r29
    1622:	90 90 88 02 	lds	r9, 0x0288	; 0x800288 <_ZL9_LEDLINE_>
    1626:	a0 90 89 02 	lds	r10, 0x0289	; 0x800289 <_ZL9_LEDLINE_+0x1>
    162a:	b0 90 8a 02 	lds	r11, 0x028A	; 0x80028a <_ZL9_LEDLINE_+0x2>
    162e:	c0 90 8b 02 	lds	r12, 0x028B	; 0x80028b <_ZL9_LEDLINE_+0x3>
    1632:	d0 90 8c 02 	lds	r13, 0x028C	; 0x80028c <_ZL9_LEDLINE_+0x4>
    1636:	e0 90 8d 02 	lds	r14, 0x028D	; 0x80028d <_ZL9_LEDLINE_+0x5>
    163a:	50 91 8e 02 	lds	r21, 0x028E	; 0x80028e <_ZL9_LEDLINE_+0x6>
    163e:	f0 90 8f 02 	lds	r15, 0x028F	; 0x80028f <_ZL9_LEDLINE_+0x7>
    1642:	a7 e0       	ldi	r26, 0x07	; 7
    1644:	b0 e0       	ldi	r27, 0x00	; 0
    1646:	e0 e0       	ldi	r30, 0x00	; 0
    1648:	f0 e0       	ldi	r31, 0x00	; 0
	for (uint8_t i = 0; i<8; ++i){
		_LEDLINE_ &= ~(1<<(DOTPOSITION + 8 * i)); // make it 0
		_LEDLINE_ |= ((1<<(DOTPOSITION + 8 * i)) * !! (dotCode & (1<<i) ));
    164a:	c8 2f       	mov	r28, r24
    164c:	d0 e0       	ldi	r29, 0x00	; 0
	led::printString(string);
}

void led::printDotsOnly(const uint8_t dotCode){//<<<<<< this function isnt ready for scalable linelength, please change sometime
	for (uint8_t i = 0; i<8; ++i){
		_LEDLINE_ &= ~(1<<(DOTPOSITION + 8 * i)); // make it 0
    164e:	01 e0       	ldi	r16, 0x01	; 1
    1650:	10 e0       	ldi	r17, 0x00	; 0
		_LEDLINE_ |= ((1<<(DOTPOSITION + 8 * i)) * !! (dotCode & (1<<i) ));
    1652:	9e 01       	movw	r18, r28
    1654:	0e 2e       	mov	r0, r30
    1656:	02 c0       	rjmp	.+4      	; 0x165c <_ZN3led13printDotsOnlyEh+0x50>
    1658:	35 95       	asr	r19
    165a:	27 95       	ror	r18
    165c:	0a 94       	dec	r0
    165e:	e2 f7       	brpl	.-8      	; 0x1658 <_ZN3led13printDotsOnlyEh+0x4c>
    1660:	21 70       	andi	r18, 0x01	; 1
    1662:	33 27       	eor	r19, r19
    1664:	0a 2e       	mov	r0, r26
    1666:	02 c0       	rjmp	.+4      	; 0x166c <_ZN3led13printDotsOnlyEh+0x60>
    1668:	22 0f       	add	r18, r18
    166a:	33 1f       	adc	r19, r19
    166c:	0a 94       	dec	r0
    166e:	e2 f7       	brpl	.-8      	; 0x1668 <_ZN3led13printDotsOnlyEh+0x5c>
    1670:	43 2f       	mov	r20, r19
    1672:	44 0f       	add	r20, r20
    1674:	44 0b       	sbc	r20, r20
	led::printString(string);
}

void led::printDotsOnly(const uint8_t dotCode){//<<<<<< this function isnt ready for scalable linelength, please change sometime
	for (uint8_t i = 0; i<8; ++i){
		_LEDLINE_ &= ~(1<<(DOTPOSITION + 8 * i)); // make it 0
    1676:	b8 01       	movw	r22, r16
    1678:	0a 2e       	mov	r0, r26
    167a:	02 c0       	rjmp	.+4      	; 0x1680 <_ZN3led13printDotsOnlyEh+0x74>
    167c:	66 0f       	add	r22, r22
    167e:	77 1f       	adc	r23, r23
    1680:	0a 94       	dec	r0
    1682:	e2 f7       	brpl	.-8      	; 0x167c <_ZN3led13printDotsOnlyEh+0x70>
    1684:	60 95       	com	r22
    1686:	70 95       	com	r23
    1688:	97 2f       	mov	r25, r23
    168a:	99 0f       	add	r25, r25
    168c:	99 0b       	sbc	r25, r25
    168e:	96 22       	and	r9, r22
    1690:	a7 22       	and	r10, r23
    1692:	b9 22       	and	r11, r25
    1694:	c9 22       	and	r12, r25
    1696:	d9 22       	and	r13, r25
    1698:	e9 22       	and	r14, r25
    169a:	59 23       	and	r21, r25
    169c:	9f 21       	and	r25, r15
		_LEDLINE_ |= ((1<<(DOTPOSITION + 8 * i)) * !! (dotCode & (1<<i) ));
    169e:	92 2a       	or	r9, r18
    16a0:	a3 2a       	or	r10, r19
    16a2:	b4 2a       	or	r11, r20
    16a4:	c4 2a       	or	r12, r20
    16a6:	d4 2a       	or	r13, r20
    16a8:	e4 2a       	or	r14, r20
    16aa:	54 2b       	or	r21, r20
    16ac:	f4 2e       	mov	r15, r20
    16ae:	f9 2a       	or	r15, r25
    16b0:	31 96       	adiw	r30, 0x01	; 1
    16b2:	18 96       	adiw	r26, 0x08	; 8
	led::clear();
	led::printString(string);
}

void led::printDotsOnly(const uint8_t dotCode){//<<<<<< this function isnt ready for scalable linelength, please change sometime
	for (uint8_t i = 0; i<8; ++i){
    16b4:	e8 30       	cpi	r30, 0x08	; 8
    16b6:	f1 05       	cpc	r31, r1
    16b8:	61 f6       	brne	.-104    	; 0x1652 <_ZN3led13printDotsOnlyEh+0x46>
    16ba:	90 92 88 02 	sts	0x0288, r9	; 0x800288 <_ZL9_LEDLINE_>
    16be:	a0 92 89 02 	sts	0x0289, r10	; 0x800289 <_ZL9_LEDLINE_+0x1>
    16c2:	b0 92 8a 02 	sts	0x028A, r11	; 0x80028a <_ZL9_LEDLINE_+0x2>
    16c6:	c0 92 8b 02 	sts	0x028B, r12	; 0x80028b <_ZL9_LEDLINE_+0x3>
    16ca:	d0 92 8c 02 	sts	0x028C, r13	; 0x80028c <_ZL9_LEDLINE_+0x4>
    16ce:	e0 92 8d 02 	sts	0x028D, r14	; 0x80028d <_ZL9_LEDLINE_+0x5>
    16d2:	50 93 8e 02 	sts	0x028E, r21	; 0x80028e <_ZL9_LEDLINE_+0x6>
    16d6:	f0 92 8f 02 	sts	0x028F, r15	; 0x80028f <_ZL9_LEDLINE_+0x7>
		_LEDLINE_ &= ~(1<<(DOTPOSITION + 8 * i)); // make it 0
		_LEDLINE_ |= ((1<<(DOTPOSITION + 8 * i)) * !! (dotCode & (1<<i) ));
	}
	pushMemory();
    16da:	6f de       	rcall	.-802    	; 0x13ba <_ZN3led10pushMemoryEv>
}
    16dc:	df 91       	pop	r29
    16de:	cf 91       	pop	r28
    16e0:	1f 91       	pop	r17
    16e2:	0f 91       	pop	r16
    16e4:	ff 90       	pop	r15
    16e6:	ef 90       	pop	r14
    16e8:	df 90       	pop	r13
    16ea:	cf 90       	pop	r12
    16ec:	bf 90       	pop	r11
    16ee:	af 90       	pop	r10
    16f0:	9f 90       	pop	r9
    16f2:	08 95       	ret

000016f4 <_ZN3led5errorEj>:

void led::error(const uint16_t code){
    16f4:	8f 92       	push	r8
    16f6:	9f 92       	push	r9
    16f8:	af 92       	push	r10
    16fa:	bf 92       	push	r11
    16fc:	cf 92       	push	r12
    16fe:	df 92       	push	r13
    1700:	ef 92       	push	r14
    1702:	ff 92       	push	r15
    1704:	0f 93       	push	r16
    1706:	1f 93       	push	r17
    1708:	cf 93       	push	r28
    170a:	df 93       	push	r29
    170c:	8c 01       	movw	r16, r24
	//static_assert(LINELENGTH>=4,"The ledError() needs at least 4 led elements!");  <<<<<<<< config c++11
	
	uint8_t SREG_temporal = SREG; // save interrupt state
    170e:	cf b7       	in	r28, 0x3f	; 63
	cli();
    1710:	f8 94       	cli
	led::clear();
    1712:	48 df       	rcall	.-368    	; 0x15a4 <_ZN3led5clearEv>
	led::printSign('E');
    1714:	85 e4       	ldi	r24, 0x45	; 69
    1716:	a2 de       	rcall	.-700    	; 0x145c <_ZN3led9printSignEc>
	hardware::delay(3000);
    1718:	88 eb       	ldi	r24, 0xB8	; 184
    171a:	9b e0       	ldi	r25, 0x0B	; 11
    171c:	f5 dc       	rcall	.-1558   	; 0x1108 <_ZN8hardware5delayEj>
	// led::pushByteVisible(0x00); to push a space between 'E' and code
	if (code < 100) led::printDigit(0);
    171e:	04 36       	cpi	r16, 0x64	; 100
    1720:	11 05       	cpc	r17, r1
    1722:	d0 f4       	brcc	.+52     	; 0x1758 <_ZN3led5errorEj+0x64>
    1724:	80 e0       	ldi	r24, 0x00	; 0
    1726:	9d de       	rcall	.-710    	; 0x1462 <_ZN3led10printDigitEh>
	if (code < 10 ) led::printDigit(0);
    1728:	0a 30       	cpi	r16, 0x0A	; 10
    172a:	11 05       	cpc	r17, r1
    172c:	c8 f4       	brcc	.+50     	; 0x1760 <_ZN3led5errorEj+0x6c>
    172e:	27 c0       	rjmp	.+78     	; 0x177e <_ZN3led5errorEj+0x8a>
	led::printInt(code);
	hardware::delay(60000);// add some fancy blinking <<<<<<<<
	if (code > 99){
		while (1) {
			led::pushBitIntern(false);// this is only to avoid compiler optimization trashing this infinite loop
    1730:	80 e0       	ldi	r24, 0x00	; 0
    1732:	3c dd       	rcall	.-1416   	; 0x11ac <_ZN3led13pushBitInternEb>
	// led::pushByteVisible(0x00); to push a space between 'E' and code
	if (code < 100) led::printDigit(0);
	if (code < 10 ) led::printDigit(0);
	led::printInt(code);
	hardware::delay(60000);// add some fancy blinking <<<<<<<<
	if (code > 99){
    1734:	fd cf       	rjmp	.-6      	; 0x1730 <_ZN3led5errorEj+0x3c>
		while (1) {
			led::pushBitIntern(false);// this is only to avoid compiler optimization trashing this infinite loop
		}
	}
	SREG = SREG_temporal; // activate interrupts
    1736:	cf bf       	out	0x3f, r28	; 63
    1738:	44 c0       	rjmp	.+136    	; 0x17c2 <_ZN3led5errorEj+0xce>
	led::printSign('E');
	hardware::delay(3000);
	// led::pushByteVisible(0x00); to push a space between 'E' and code
	if (code < 100) led::printDigit(0);
	if (code < 10 ) led::printDigit(0);
	led::printInt(code);
    173a:	c8 01       	movw	r24, r16
    173c:	00 e0       	ldi	r16, 0x00	; 0
    173e:	28 2f       	mov	r18, r24
    1740:	39 2f       	mov	r19, r25
    1742:	40 e0       	ldi	r20, 0x00	; 0
    1744:	50 e0       	ldi	r21, 0x00	; 0
    1746:	60 e0       	ldi	r22, 0x00	; 0
    1748:	70 e0       	ldi	r23, 0x00	; 0
    174a:	80 e0       	ldi	r24, 0x00	; 0
    174c:	90 e0       	ldi	r25, 0x00	; 0
    174e:	8c de       	rcall	.-744    	; 0x1468 <_ZN3led8printIntExb>
	hardware::delay(60000);// add some fancy blinking <<<<<<<<
    1750:	80 e6       	ldi	r24, 0x60	; 96
    1752:	9a ee       	ldi	r25, 0xEA	; 234
    1754:	d9 dc       	rcall	.-1614   	; 0x1108 <_ZN8hardware5delayEj>
    1756:	ec cf       	rjmp	.-40     	; 0x1730 <_ZN3led5errorEj+0x3c>
	led::clear();
	led::printSign('E');
	hardware::delay(3000);
	// led::pushByteVisible(0x00); to push a space between 'E' and code
	if (code < 100) led::printDigit(0);
	if (code < 10 ) led::printDigit(0);
    1758:	0a 30       	cpi	r16, 0x0A	; 10
    175a:	11 05       	cpc	r17, r1
    175c:	70 f7       	brcc	.-36     	; 0x173a <_ZN3led5errorEj+0x46>
    175e:	20 c0       	rjmp	.+64     	; 0x17a0 <_ZN3led5errorEj+0xac>
	led::printInt(code);
    1760:	48 01       	movw	r8, r16
    1762:	00 e0       	ldi	r16, 0x00	; 0
    1764:	28 2d       	mov	r18, r8
    1766:	39 2d       	mov	r19, r9
    1768:	40 e0       	ldi	r20, 0x00	; 0
    176a:	50 e0       	ldi	r21, 0x00	; 0
    176c:	60 e0       	ldi	r22, 0x00	; 0
    176e:	70 e0       	ldi	r23, 0x00	; 0
    1770:	80 e0       	ldi	r24, 0x00	; 0
    1772:	90 e0       	ldi	r25, 0x00	; 0
    1774:	79 de       	rcall	.-782    	; 0x1468 <_ZN3led8printIntExb>
	hardware::delay(60000);// add some fancy blinking <<<<<<<<
    1776:	80 e6       	ldi	r24, 0x60	; 96
    1778:	9a ee       	ldi	r25, 0xEA	; 234
    177a:	c6 dc       	rcall	.-1652   	; 0x1108 <_ZN8hardware5delayEj>
    177c:	dc cf       	rjmp	.-72     	; 0x1736 <_ZN3led5errorEj+0x42>
	led::clear();
	led::printSign('E');
	hardware::delay(3000);
	// led::pushByteVisible(0x00); to push a space between 'E' and code
	if (code < 100) led::printDigit(0);
	if (code < 10 ) led::printDigit(0);
    177e:	80 e0       	ldi	r24, 0x00	; 0
    1780:	70 de       	rcall	.-800    	; 0x1462 <_ZN3led10printDigitEh>
	led::printInt(code);
    1782:	48 01       	movw	r8, r16
    1784:	00 e0       	ldi	r16, 0x00	; 0
    1786:	28 2d       	mov	r18, r8
    1788:	39 2d       	mov	r19, r9
    178a:	40 e0       	ldi	r20, 0x00	; 0
    178c:	50 e0       	ldi	r21, 0x00	; 0
    178e:	60 e0       	ldi	r22, 0x00	; 0
    1790:	70 e0       	ldi	r23, 0x00	; 0
    1792:	80 e0       	ldi	r24, 0x00	; 0
    1794:	90 e0       	ldi	r25, 0x00	; 0
    1796:	68 de       	rcall	.-816    	; 0x1468 <_ZN3led8printIntExb>
	hardware::delay(60000);// add some fancy blinking <<<<<<<<
    1798:	80 e6       	ldi	r24, 0x60	; 96
    179a:	9a ee       	ldi	r25, 0xEA	; 234
    179c:	b5 dc       	rcall	.-1686   	; 0x1108 <_ZN8hardware5delayEj>
    179e:	cb cf       	rjmp	.-106    	; 0x1736 <_ZN3led5errorEj+0x42>
	led::clear();
	led::printSign('E');
	hardware::delay(3000);
	// led::pushByteVisible(0x00); to push a space between 'E' and code
	if (code < 100) led::printDigit(0);
	if (code < 10 ) led::printDigit(0);
    17a0:	80 e0       	ldi	r24, 0x00	; 0
    17a2:	5f de       	rcall	.-834    	; 0x1462 <_ZN3led10printDigitEh>
	led::printInt(code);
    17a4:	c8 01       	movw	r24, r16
    17a6:	00 e0       	ldi	r16, 0x00	; 0
    17a8:	28 2f       	mov	r18, r24
    17aa:	39 2f       	mov	r19, r25
    17ac:	40 e0       	ldi	r20, 0x00	; 0
    17ae:	50 e0       	ldi	r21, 0x00	; 0
    17b0:	60 e0       	ldi	r22, 0x00	; 0
    17b2:	70 e0       	ldi	r23, 0x00	; 0
    17b4:	80 e0       	ldi	r24, 0x00	; 0
    17b6:	90 e0       	ldi	r25, 0x00	; 0
    17b8:	57 de       	rcall	.-850    	; 0x1468 <_ZN3led8printIntExb>
	hardware::delay(60000);// add some fancy blinking <<<<<<<<
    17ba:	80 e6       	ldi	r24, 0x60	; 96
    17bc:	9a ee       	ldi	r25, 0xEA	; 234
    17be:	a4 dc       	rcall	.-1720   	; 0x1108 <_ZN8hardware5delayEj>
    17c0:	b7 cf       	rjmp	.-146    	; 0x1730 <_ZN3led5errorEj+0x3c>
			led::pushBitIntern(false);// this is only to avoid compiler optimization trashing this infinite loop
		}
	}
	SREG = SREG_temporal; // activate interrupts
	// <<< is watchdog turned of with cli()?? what behavior do you prefer?
}
    17c2:	df 91       	pop	r29
    17c4:	cf 91       	pop	r28
    17c6:	1f 91       	pop	r17
    17c8:	0f 91       	pop	r16
    17ca:	ff 90       	pop	r15
    17cc:	ef 90       	pop	r14
    17ce:	df 90       	pop	r13
    17d0:	cf 90       	pop	r12
    17d2:	bf 90       	pop	r11
    17d4:	af 90       	pop	r10
    17d6:	9f 90       	pop	r9
    17d8:	8f 90       	pop	r8
    17da:	08 95       	ret

000017dc <_ZN4test5led_t3runEv>:
	LFPrintString("error");
}

namespace test {
	
	void led_t::run(){
    17dc:	ff 92       	push	r15
    17de:	0f 93       	push	r16
    17e0:	1f 93       	push	r17
    17e2:	cf 93       	push	r28
    17e4:	df 93       	push	r29
    17e6:	cd b7       	in	r28, 0x3d	; 61
    17e8:	de b7       	in	r29, 0x3e	; 62
    17ea:	a3 97       	sbiw	r28, 0x23	; 35
    17ec:	0f b6       	in	r0, 0x3f	; 63
    17ee:	f8 94       	cli
    17f0:	de bf       	out	0x3e, r29	; 62
    17f2:	0f be       	out	0x3f, r0	; 63
    17f4:	cd bf       	out	0x3d, r28	; 61
		using namespace led;
		
		init(8);
    17f6:	88 e0       	ldi	r24, 0x08	; 8
    17f8:	e5 de       	rcall	.-566    	; 0x15c4 <_ZN3led4initEh>
		delay(1000);
    17fa:	88 ee       	ldi	r24, 0xE8	; 232
    17fc:	93 e0       	ldi	r25, 0x03	; 3
    17fe:	84 dc       	rcall	.-1784   	; 0x1108 <_ZN8hardware5delayEj>
		
		// pushBit nad latch
		for (uint8_t i = 0; i < 70; ++i){
    1800:	10 e0       	ldi	r17, 0x00	; 0
			pushBit(i%2);
			if (!(i%3)){
    1802:	0b ea       	ldi	r16, 0xAB	; 171
		init(8);
		delay(1000);
		
		// pushBit nad latch
		for (uint8_t i = 0; i < 70; ++i){
			pushBit(i%2);
    1804:	81 2f       	mov	r24, r17
    1806:	81 70       	andi	r24, 0x01	; 1
    1808:	dd dc       	rcall	.-1606   	; 0x11c4 <_ZN3led7pushBitEb>
			if (!(i%3)){
    180a:	10 9f       	mul	r17, r16
    180c:	81 2d       	mov	r24, r1
    180e:	11 24       	eor	r1, r1
    1810:	86 95       	lsr	r24
    1812:	98 2f       	mov	r25, r24
    1814:	99 0f       	add	r25, r25
    1816:	89 0f       	add	r24, r25
    1818:	18 13       	cpse	r17, r24
    181a:	01 c0       	rjmp	.+2      	; 0x181e <_ZN4test5led_t3runEv+0x42>
				latch();
    181c:	bf dc       	rcall	.-1666   	; 0x119c <_ZN3led5latchEv>
			};
			delay(1000);
    181e:	88 ee       	ldi	r24, 0xE8	; 232
    1820:	93 e0       	ldi	r25, 0x03	; 3
    1822:	72 dc       	rcall	.-1820   	; 0x1108 <_ZN8hardware5delayEj>
		
		init(8);
		delay(1000);
		
		// pushBit nad latch
		for (uint8_t i = 0; i < 70; ++i){
    1824:	1f 5f       	subi	r17, 0xFF	; 255
    1826:	16 34       	cpi	r17, 0x46	; 70
    1828:	69 f7       	brne	.-38     	; 0x1804 <_ZN4test5led_t3runEv+0x28>
				latch();
			};
			delay(1000);
		}
		
		clear();
    182a:	bc de       	rcall	.-648    	; 0x15a4 <_ZN3led5clearEv>
		PAUSE
    182c:	80 ed       	ldi	r24, 0xD0	; 208
    182e:	97 e0       	ldi	r25, 0x07	; 7
    1830:	6b dc       	rcall	.-1834   	; 0x1108 <_ZN8hardware5delayEj>
    1832:	00 e0       	ldi	r16, 0x00	; 0
    1834:	10 e0       	ldi	r17, 0x00	; 0
		
		//pushByte and latch
		for (uint8_t i= 0; i<8; ++i)
		{
			pushByte(1<<i);
    1836:	ff 24       	eor	r15, r15
    1838:	f3 94       	inc	r15
    183a:	8f 2d       	mov	r24, r15
    183c:	00 2e       	mov	r0, r16
    183e:	01 c0       	rjmp	.+2      	; 0x1842 <_ZN4test5led_t3runEv+0x66>
    1840:	88 0f       	add	r24, r24
    1842:	0a 94       	dec	r0
    1844:	ea f7       	brpl	.-6      	; 0x1840 <_ZN4test5led_t3runEv+0x64>
    1846:	05 dd       	rcall	.-1526   	; 0x1252 <_ZN3led8pushByteEh>
			latch();
    1848:	a9 dc       	rcall	.-1710   	; 0x119c <_ZN3led5latchEv>
			delay(1000);
    184a:	88 ee       	ldi	r24, 0xE8	; 232
    184c:	93 e0       	ldi	r25, 0x03	; 3
    184e:	5c dc       	rcall	.-1864   	; 0x1108 <_ZN8hardware5delayEj>
    1850:	0f 5f       	subi	r16, 0xFF	; 255
    1852:	1f 4f       	sbci	r17, 0xFF	; 255
		
		clear();
		PAUSE
		
		//pushByte and latch
		for (uint8_t i= 0; i<8; ++i)
    1854:	08 30       	cpi	r16, 0x08	; 8
    1856:	11 05       	cpc	r17, r1
    1858:	81 f7       	brne	.-32     	; 0x183a <_ZN4test5led_t3runEv+0x5e>
		{
			pushByte(1<<i);
			latch();
			delay(1000);
		}
		clear();
    185a:	a4 de       	rcall	.-696    	; 0x15a4 <_ZN3led5clearEv>
		PAUSE
    185c:	80 ed       	ldi	r24, 0xD0	; 208
    185e:	97 e0       	ldi	r25, 0x07	; 7
    1860:	53 dc       	rcall	.-1882   	; 0x1108 <_ZN8hardware5delayEj>
		
		// pushByteVisible
		for (uint8_t i = 0; i<16; ++i){
    1862:	10 e0       	ldi	r17, 0x00	; 0
			pushByteVisible(i);
    1864:	81 2f       	mov	r24, r17
    1866:	bc dd       	rcall	.-1160   	; 0x13e0 <_ZN3led15pushByteVisibleEh>
			delay(1000);
    1868:	88 ee       	ldi	r24, 0xE8	; 232
    186a:	93 e0       	ldi	r25, 0x03	; 3
    186c:	4d dc       	rcall	.-1894   	; 0x1108 <_ZN8hardware5delayEj>
		}
		clear();
		PAUSE
		
		// pushByteVisible
		for (uint8_t i = 0; i<16; ++i){
    186e:	1f 5f       	subi	r17, 0xFF	; 255
    1870:	10 31       	cpi	r17, 0x10	; 16
    1872:	c1 f7       	brne	.-16     	; 0x1864 <_ZN4test5led_t3runEv+0x88>
    1874:	10 e0       	ldi	r17, 0x00	; 0
			pushByteVisible(i);
			delay(1000);
		}
		for (uint8_t i = 0; i<16; ++i){
			pushByteVisible( (i<<4) + 0x0F);
    1876:	81 2f       	mov	r24, r17
    1878:	82 95       	swap	r24
    187a:	80 7f       	andi	r24, 0xF0	; 240
    187c:	81 5f       	subi	r24, 0xF1	; 241
    187e:	b0 dd       	rcall	.-1184   	; 0x13e0 <_ZN3led15pushByteVisibleEh>
			delay(1000);
    1880:	88 ee       	ldi	r24, 0xE8	; 232
    1882:	93 e0       	ldi	r25, 0x03	; 3
    1884:	41 dc       	rcall	.-1918   	; 0x1108 <_ZN8hardware5delayEj>
		// pushByteVisible
		for (uint8_t i = 0; i<16; ++i){
			pushByteVisible(i);
			delay(1000);
		}
		for (uint8_t i = 0; i<16; ++i){
    1886:	1f 5f       	subi	r17, 0xFF	; 255
    1888:	10 31       	cpi	r17, 0x10	; 16
    188a:	a9 f7       	brne	.-22     	; 0x1876 <_ZN4test5led_t3runEv+0x9a>
			pushByteVisible( (i<<4) + 0x0F);
			delay(1000);
		}
		clear();
    188c:	8b de       	rcall	.-746    	; 0x15a4 <_ZN3led5clearEv>
		PAUSE
    188e:	80 ed       	ldi	r24, 0xD0	; 208
    1890:	97 e0       	ldi	r25, 0x07	; 7
    1892:	3a dc       	rcall	.-1932   	; 0x1108 <_ZN8hardware5delayEj>
		
		//printsign
		printSign('A');
    1894:	81 e4       	ldi	r24, 0x41	; 65
    1896:	e2 dd       	rcall	.-1084   	; 0x145c <_ZN3led9printSignEc>
		printSign('B');
    1898:	82 e4       	ldi	r24, 0x42	; 66
    189a:	e0 dd       	rcall	.-1088   	; 0x145c <_ZN3led9printSignEc>
		printSign('C');
    189c:	83 e4       	ldi	r24, 0x43	; 67
    189e:	de dd       	rcall	.-1092   	; 0x145c <_ZN3led9printSignEc>
		printSign('D');
    18a0:	84 e4       	ldi	r24, 0x44	; 68
    18a2:	dc dd       	rcall	.-1096   	; 0x145c <_ZN3led9printSignEc>
		PAUSE;
    18a4:	80 ed       	ldi	r24, 0xD0	; 208
    18a6:	97 e0       	ldi	r25, 0x07	; 7
    18a8:	2f dc       	rcall	.-1954   	; 0x1108 <_ZN8hardware5delayEj>
		PAUSE
    18aa:	80 ed       	ldi	r24, 0xD0	; 208
    18ac:	97 e0       	ldi	r25, 0x07	; 7
    18ae:	2c dc       	rcall	.-1960   	; 0x1108 <_ZN8hardware5delayEj>
		clear();
    18b0:	79 de       	rcall	.-782    	; 0x15a4 <_ZN3led5clearEv>
		SLEEP
    18b2:	80 e7       	ldi	r24, 0x70	; 112
    18b4:	97 e1       	ldi	r25, 0x17	; 23
    18b6:	28 dc       	rcall	.-1968   	; 0x1108 <_ZN8hardware5delayEj>
		
		printSign('(');
    18b8:	88 e2       	ldi	r24, 0x28	; 40
    18ba:	d0 dd       	rcall	.-1120   	; 0x145c <_ZN3led9printSignEc>
		printSign('e');
    18bc:	85 e6       	ldi	r24, 0x65	; 101
    18be:	ce dd       	rcall	.-1124   	; 0x145c <_ZN3led9printSignEc>
		printSign('x');
    18c0:	88 e7       	ldi	r24, 0x78	; 120
    18c2:	cc dd       	rcall	.-1128   	; 0x145c <_ZN3led9printSignEc>
		printSign('p');
    18c4:	80 e7       	ldi	r24, 0x70	; 112
    18c6:	ca dd       	rcall	.-1132   	; 0x145c <_ZN3led9printSignEc>
		printSign(')');
    18c8:	89 e2       	ldi	r24, 0x29	; 41
    18ca:	c8 dd       	rcall	.-1136   	; 0x145c <_ZN3led9printSignEc>
		printSign('-');
    18cc:	8d e2       	ldi	r24, 0x2D	; 45
    18ce:	c6 dd       	rcall	.-1140   	; 0x145c <_ZN3led9printSignEc>
		printSign('3');
    18d0:	83 e3       	ldi	r24, 0x33	; 51
    18d2:	c4 dd       	rcall	.-1144   	; 0x145c <_ZN3led9printSignEc>
		PAUSE PAUSE PAUSE PAUSE
    18d4:	80 ed       	ldi	r24, 0xD0	; 208
    18d6:	97 e0       	ldi	r25, 0x07	; 7
    18d8:	17 dc       	rcall	.-2002   	; 0x1108 <_ZN8hardware5delayEj>
    18da:	80 ed       	ldi	r24, 0xD0	; 208
    18dc:	97 e0       	ldi	r25, 0x07	; 7
    18de:	14 dc       	rcall	.-2008   	; 0x1108 <_ZN8hardware5delayEj>
    18e0:	80 ed       	ldi	r24, 0xD0	; 208
    18e2:	97 e0       	ldi	r25, 0x07	; 7
    18e4:	11 dc       	rcall	.-2014   	; 0x1108 <_ZN8hardware5delayEj>
    18e6:	80 ed       	ldi	r24, 0xD0	; 208
    18e8:	97 e0       	ldi	r25, 0x07	; 7
    18ea:	0e dc       	rcall	.-2020   	; 0x1108 <_ZN8hardware5delayEj>
		
		clear();
    18ec:	5b de       	rcall	.-842    	; 0x15a4 <_ZN3led5clearEv>
		PAUSE
    18ee:	80 ed       	ldi	r24, 0xD0	; 208
    18f0:	97 e0       	ldi	r25, 0x07	; 7
    18f2:	0a dc       	rcall	.-2028   	; 0x1108 <_ZN8hardware5delayEj>
		
		// printstring
		char mystring[] = "true";
    18f4:	85 e0       	ldi	r24, 0x05	; 5
    18f6:	eb e4       	ldi	r30, 0x4B	; 75
    18f8:	f1 e0       	ldi	r31, 0x01	; 1
    18fa:	de 01       	movw	r26, r28
    18fc:	5e 96       	adiw	r26, 0x1e	; 30
    18fe:	01 90       	ld	r0, Z+
    1900:	0d 92       	st	X+, r0
    1902:	8a 95       	dec	r24
    1904:	e1 f7       	brne	.-8      	; 0x18fe <_ZN4test5led_t3runEv+0x122>
		char s2 [] = "str-prnt";
    1906:	89 e0       	ldi	r24, 0x09	; 9
    1908:	e0 e5       	ldi	r30, 0x50	; 80
    190a:	f1 e0       	ldi	r31, 0x01	; 1
    190c:	de 01       	movw	r26, r28
    190e:	1a 96       	adiw	r26, 0x0a	; 10
    1910:	01 90       	ld	r0, Z+
    1912:	0d 92       	st	X+, r0
    1914:	8a 95       	dec	r24
    1916:	e1 f7       	brne	.-8      	; 0x1910 <_ZN4test5led_t3runEv+0x134>
		printString(mystring);
    1918:	ce 01       	movw	r24, r28
    191a:	4e 96       	adiw	r24, 0x1e	; 30
    191c:	2e de       	rcall	.-932    	; 0x157a <_ZN3led11printStringEPKc>
		PAUSE; PAUSE PAUSE
    191e:	80 ed       	ldi	r24, 0xD0	; 208
    1920:	97 e0       	ldi	r25, 0x07	; 7
    1922:	f2 db       	rcall	.-2076   	; 0x1108 <_ZN8hardware5delayEj>
    1924:	80 ed       	ldi	r24, 0xD0	; 208
    1926:	97 e0       	ldi	r25, 0x07	; 7
    1928:	ef db       	rcall	.-2082   	; 0x1108 <_ZN8hardware5delayEj>
    192a:	80 ed       	ldi	r24, 0xD0	; 208
    192c:	97 e0       	ldi	r25, 0x07	; 7
    192e:	ec db       	rcall	.-2088   	; 0x1108 <_ZN8hardware5delayEj>
		printString(s2);
    1930:	ce 01       	movw	r24, r28
    1932:	0a 96       	adiw	r24, 0x0a	; 10
    1934:	22 de       	rcall	.-956    	; 0x157a <_ZN3led11printStringEPKc>
		PAUSE PAUSE PAUSE PAUSE
    1936:	80 ed       	ldi	r24, 0xD0	; 208
    1938:	97 e0       	ldi	r25, 0x07	; 7
    193a:	e6 db       	rcall	.-2100   	; 0x1108 <_ZN8hardware5delayEj>
    193c:	80 ed       	ldi	r24, 0xD0	; 208
    193e:	97 e0       	ldi	r25, 0x07	; 7
    1940:	e3 db       	rcall	.-2106   	; 0x1108 <_ZN8hardware5delayEj>
    1942:	80 ed       	ldi	r24, 0xD0	; 208
    1944:	97 e0       	ldi	r25, 0x07	; 7
    1946:	e0 db       	rcall	.-2112   	; 0x1108 <_ZN8hardware5delayEj>
    1948:	80 ed       	ldi	r24, 0xD0	; 208
    194a:	97 e0       	ldi	r25, 0x07	; 7
    194c:	dd db       	rcall	.-2118   	; 0x1108 <_ZN8hardware5delayEj>
				
		clear();
    194e:	2a de       	rcall	.-940    	; 0x15a4 <_ZN3led5clearEv>
		
		// lfprintstring
		char s3 [] = "LF PRN S";
    1950:	89 e0       	ldi	r24, 0x09	; 9
    1952:	e9 e5       	ldi	r30, 0x59	; 89
    1954:	f1 e0       	ldi	r31, 0x01	; 1
    1956:	de 01       	movw	r26, r28
    1958:	11 96       	adiw	r26, 0x01	; 1
    195a:	01 90       	ld	r0, Z+
    195c:	0d 92       	st	X+, r0
    195e:	8a 95       	dec	r24
    1960:	e1 f7       	brne	.-8      	; 0x195a <_ZN4test5led_t3runEv+0x17e>
		char s4 [] = "lf 4";
    1962:	85 e0       	ldi	r24, 0x05	; 5
    1964:	e2 e6       	ldi	r30, 0x62	; 98
    1966:	f1 e0       	ldi	r31, 0x01	; 1
    1968:	de 01       	movw	r26, r28
    196a:	59 96       	adiw	r26, 0x19	; 25
    196c:	01 90       	ld	r0, Z+
    196e:	0d 92       	st	X+, r0
    1970:	8a 95       	dec	r24
    1972:	e1 f7       	brne	.-8      	; 0x196c <_ZN4test5led_t3runEv+0x190>
		char s5 [] = "12345";
    1974:	86 e0       	ldi	r24, 0x06	; 6
    1976:	e7 e6       	ldi	r30, 0x67	; 103
    1978:	f1 e0       	ldi	r31, 0x01	; 1
    197a:	de 01       	movw	r26, r28
    197c:	53 96       	adiw	r26, 0x13	; 19
    197e:	01 90       	ld	r0, Z+
    1980:	0d 92       	st	X+, r0
    1982:	8a 95       	dec	r24
    1984:	e1 f7       	brne	.-8      	; 0x197e <_ZN4test5led_t3runEv+0x1a2>
		LFPrintString(s3);
    1986:	ce 01       	movw	r24, r28
    1988:	01 96       	adiw	r24, 0x01	; 1
    198a:	37 de       	rcall	.-914    	; 0x15fa <_ZN3led13LFPrintStringEPKc>
		PAUSE PAUSE PAUSE
    198c:	80 ed       	ldi	r24, 0xD0	; 208
    198e:	97 e0       	ldi	r25, 0x07	; 7
    1990:	bb db       	rcall	.-2186   	; 0x1108 <_ZN8hardware5delayEj>
    1992:	80 ed       	ldi	r24, 0xD0	; 208
    1994:	97 e0       	ldi	r25, 0x07	; 7
    1996:	b8 db       	rcall	.-2192   	; 0x1108 <_ZN8hardware5delayEj>
    1998:	80 ed       	ldi	r24, 0xD0	; 208
    199a:	97 e0       	ldi	r25, 0x07	; 7
    199c:	b5 db       	rcall	.-2198   	; 0x1108 <_ZN8hardware5delayEj>
		LFPrintString(s4);
    199e:	ce 01       	movw	r24, r28
    19a0:	49 96       	adiw	r24, 0x19	; 25
    19a2:	2b de       	rcall	.-938    	; 0x15fa <_ZN3led13LFPrintStringEPKc>
		PAUSE PAUSE PAUSE
    19a4:	80 ed       	ldi	r24, 0xD0	; 208
    19a6:	97 e0       	ldi	r25, 0x07	; 7
    19a8:	af db       	rcall	.-2210   	; 0x1108 <_ZN8hardware5delayEj>
    19aa:	80 ed       	ldi	r24, 0xD0	; 208
    19ac:	97 e0       	ldi	r25, 0x07	; 7
    19ae:	ac db       	rcall	.-2216   	; 0x1108 <_ZN8hardware5delayEj>
    19b0:	80 ed       	ldi	r24, 0xD0	; 208
    19b2:	97 e0       	ldi	r25, 0x07	; 7
    19b4:	a9 db       	rcall	.-2222   	; 0x1108 <_ZN8hardware5delayEj>
		LFPrintString(s5);
    19b6:	ce 01       	movw	r24, r28
    19b8:	43 96       	adiw	r24, 0x13	; 19
    19ba:	1f de       	rcall	.-962    	; 0x15fa <_ZN3led13LFPrintStringEPKc>
		SLEEP
    19bc:	80 e7       	ldi	r24, 0x70	; 112
    19be:	97 e1       	ldi	r25, 0x17	; 23
    19c0:	a3 db       	rcall	.-2234   	; 0x1108 <_ZN8hardware5delayEj>
		LFPrintString("test-1");
    19c2:	85 e2       	ldi	r24, 0x25	; 37
    19c4:	91 e0       	ldi	r25, 0x01	; 1
    19c6:	19 de       	rcall	.-974    	; 0x15fa <_ZN3led13LFPrintStringEPKc>
		SLEEP
    19c8:	80 e7       	ldi	r24, 0x70	; 112
    19ca:	97 e1       	ldi	r25, 0x17	; 23
    19cc:	9d db       	rcall	.-2246   	; 0x1108 <_ZN8hardware5delayEj>
		LFPrintString("last-lf");
    19ce:	8c e2       	ldi	r24, 0x2C	; 44
    19d0:	91 e0       	ldi	r25, 0x01	; 1
    19d2:	13 de       	rcall	.-986    	; 0x15fa <_ZN3led13LFPrintStringEPKc>
		SLEEP
    19d4:	80 e7       	ldi	r24, 0x70	; 112
    19d6:	97 e1       	ldi	r25, 0x17	; 23
    19d8:	97 db       	rcall	.-2258   	; 0x1108 <_ZN8hardware5delayEj>
		
		
		// isDotted
		LFPrintString("isdotted");
    19da:	84 e3       	ldi	r24, 0x34	; 52
    19dc:	91 e0       	ldi	r25, 0x01	; 1
    19de:	0d de       	rcall	.-998    	; 0x15fa <_ZN3led13LFPrintStringEPKc>
		PAUSE
    19e0:	80 ed       	ldi	r24, 0xD0	; 208
    19e2:	97 e0       	ldi	r25, 0x07	; 7
    19e4:	91 db       	rcall	.-2270   	; 0x1108 <_ZN8hardware5delayEj>
		printSign('0');
    19e6:	80 e3       	ldi	r24, 0x30	; 48
    19e8:	39 dd       	rcall	.-1422   	; 0x145c <_ZN3led9printSignEc>
		if (isDotted('a'+DOT)) { } else { throwerror();}
    19ea:	81 ee       	ldi	r24, 0xE1	; 225
    19ec:	fc dc       	rcall	.-1544   	; 0x13e6 <_ZN3led8isDottedEc>
    19ee:	81 11       	cpse	r24, r1
    19f0:	03 c0       	rjmp	.+6      	; 0x19f8 <_ZN4test5led_t3runEv+0x21c>
#define WAIT delay(1000);
#define SLEEP delay(6000);

inline void throwerror(){
	using namespace led;
	LFPrintString("error");
    19f2:	8d e3       	ldi	r24, 0x3D	; 61
    19f4:	91 e0       	ldi	r25, 0x01	; 1
    19f6:	01 de       	rcall	.-1022   	; 0x15fa <_ZN3led13LFPrintStringEPKc>
		// isDotted
		LFPrintString("isdotted");
		PAUSE
		printSign('0');
		if (isDotted('a'+DOT)) { } else { throwerror();}
		SLEEP;
    19f8:	80 e7       	ldi	r24, 0x70	; 112
    19fa:	97 e1       	ldi	r25, 0x17	; 23
    19fc:	85 db       	rcall	.-2294   	; 0x1108 <_ZN8hardware5delayEj>
		printSign('1');
    19fe:	81 e3       	ldi	r24, 0x31	; 49
    1a00:	2d dd       	rcall	.-1446   	; 0x145c <_ZN3led9printSignEc>
		if (isDotted('5')) { throwerror(); }
    1a02:	85 e3       	ldi	r24, 0x35	; 53
    1a04:	f0 dc       	rcall	.-1568   	; 0x13e6 <_ZN3led8isDottedEc>
    1a06:	88 23       	and	r24, r24
    1a08:	19 f0       	breq	.+6      	; 0x1a10 <_ZN4test5led_t3runEv+0x234>
#define WAIT delay(1000);
#define SLEEP delay(6000);

inline void throwerror(){
	using namespace led;
	LFPrintString("error");
    1a0a:	8d e3       	ldi	r24, 0x3D	; 61
    1a0c:	91 e0       	ldi	r25, 0x01	; 1
    1a0e:	f5 dd       	rcall	.-1046   	; 0x15fa <_ZN3led13LFPrintStringEPKc>
		printSign('0');
		if (isDotted('a'+DOT)) { } else { throwerror();}
		SLEEP;
		printSign('1');
		if (isDotted('5')) { throwerror(); }
		SLEEP
    1a10:	80 e7       	ldi	r24, 0x70	; 112
    1a12:	97 e1       	ldi	r25, 0x17	; 23
    1a14:	79 db       	rcall	.-2318   	; 0x1108 <_ZN8hardware5delayEj>
		SLEEP
    1a16:	80 e7       	ldi	r24, 0x70	; 112
    1a18:	97 e1       	ldi	r25, 0x17	; 23
    1a1a:	76 db       	rcall	.-2324   	; 0x1108 <_ZN8hardware5delayEj>
		
		clear();
    1a1c:	c3 dd       	rcall	.-1146   	; 0x15a4 <_ZN3led5clearEv>
		SLEEP
    1a1e:	80 e7       	ldi	r24, 0x70	; 112
    1a20:	97 e1       	ldi	r25, 0x17	; 23
    1a22:	72 db       	rcall	.-2332   	; 0x1108 <_ZN8hardware5delayEj>
		
		// setdot and printsigndottable
		char a = 'a';
    1a24:	81 e6       	ldi	r24, 0x61	; 97
    1a26:	8b a3       	std	Y+35, r24	; 0x23
		setDot(&a,true);
    1a28:	61 e0       	ldi	r22, 0x01	; 1
    1a2a:	ce 01       	movw	r24, r28
    1a2c:	83 96       	adiw	r24, 0x23	; 35
    1a2e:	df dc       	rcall	.-1602   	; 0x13ee <_ZN3led6setDotEPcb>
		printSign(a);
    1a30:	8b a1       	ldd	r24, Y+35	; 0x23
    1a32:	14 dd       	rcall	.-1496   	; 0x145c <_ZN3led9printSignEc>
		setDot(&a,false);
    1a34:	60 e0       	ldi	r22, 0x00	; 0
    1a36:	ce 01       	movw	r24, r28
    1a38:	83 96       	adiw	r24, 0x23	; 35
    1a3a:	d9 dc       	rcall	.-1614   	; 0x13ee <_ZN3led6setDotEPcb>
		printSign(a);
    1a3c:	8b a1       	ldd	r24, Y+35	; 0x23
    1a3e:	0e dd       	rcall	.-1508   	; 0x145c <_ZN3led9printSignEc>
		printSignDottable(a,true);
    1a40:	61 e0       	ldi	r22, 0x01	; 1
    1a42:	8b a1       	ldd	r24, Y+35	; 0x23
    1a44:	8b dd       	rcall	.-1258   	; 0x155c <_ZN3led17printSignDottableEcb>
		
		printSignDottable(a,false);
    1a46:	60 e0       	ldi	r22, 0x00	; 0
    1a48:	8b a1       	ldd	r24, Y+35	; 0x23
    1a4a:	88 dd       	rcall	.-1264   	; 0x155c <_ZN3led17printSignDottableEcb>
		
		// print digigt and integer
		printDigit(0);
    1a4c:	80 e0       	ldi	r24, 0x00	; 0
    1a4e:	09 dd       	rcall	.-1518   	; 0x1462 <_ZN3led10printDigitEh>
		printDigit(3);
    1a50:	83 e0       	ldi	r24, 0x03	; 3
    1a52:	07 dd       	rcall	.-1522   	; 0x1462 <_ZN3led10printDigitEh>
		printDigit((7));
    1a54:	87 e0       	ldi	r24, 0x07	; 7
    1a56:	05 dd       	rcall	.-1526   	; 0x1462 <_ZN3led10printDigitEh>
		SLEEP
    1a58:	80 e7       	ldi	r24, 0x70	; 112
    1a5a:	97 e1       	ldi	r25, 0x17	; 23
    1a5c:	55 db       	rcall	.-2390   	; 0x1108 <_ZN8hardware5delayEj>
		
		clear();
    1a5e:	a2 dd       	rcall	.-1212   	; 0x15a4 <_ZN3led5clearEv>
		printInt(2106);
    1a60:	00 e0       	ldi	r16, 0x00	; 0
    1a62:	2a e3       	ldi	r18, 0x3A	; 58
    1a64:	38 e0       	ldi	r19, 0x08	; 8
    1a66:	40 e0       	ldi	r20, 0x00	; 0
    1a68:	50 e0       	ldi	r21, 0x00	; 0
    1a6a:	60 e0       	ldi	r22, 0x00	; 0
    1a6c:	70 e0       	ldi	r23, 0x00	; 0
    1a6e:	80 e0       	ldi	r24, 0x00	; 0
    1a70:	90 e0       	ldi	r25, 0x00	; 0
    1a72:	fa dc       	rcall	.-1548   	; 0x1468 <_ZN3led8printIntExb>
		SLEEP
    1a74:	80 e7       	ldi	r24, 0x70	; 112
    1a76:	97 e1       	ldi	r25, 0x17	; 23
    1a78:	47 db       	rcall	.-2418   	; 0x1108 <_ZN8hardware5delayEj>
		SLEEP
    1a7a:	80 e7       	ldi	r24, 0x70	; 112
    1a7c:	97 e1       	ldi	r25, 0x17	; 23
    1a7e:	44 db       	rcall	.-2424   	; 0x1108 <_ZN8hardware5delayEj>
		LFPrintString("THE END");
    1a80:	83 e4       	ldi	r24, 0x43	; 67
    1a82:	91 e0       	ldi	r25, 0x01	; 1
    1a84:	ba dd       	rcall	.-1164   	; 0x15fa <_ZN3led13LFPrintStringEPKc>
	}
    1a86:	a3 96       	adiw	r28, 0x23	; 35
    1a88:	0f b6       	in	r0, 0x3f	; 63
    1a8a:	f8 94       	cli
    1a8c:	de bf       	out	0x3e, r29	; 62
    1a8e:	0f be       	out	0x3f, r0	; 63
    1a90:	cd bf       	out	0x3d, r28	; 61
    1a92:	df 91       	pop	r29
    1a94:	cf 91       	pop	r28
    1a96:	1f 91       	pop	r17
    1a98:	0f 91       	pop	r16
    1a9a:	ff 90       	pop	r15
    1a9c:	08 95       	ret

00001a9e <_Z15after_selectingv>:
#include "f_arch.h"
#include "f_gui.h"
#include "f_test.h"


void foo(){
    1a9e:	82 cd       	rjmp	.-1276   	; 0x15a4 <_ZN3led5clearEv>
    1aa0:	08 95       	ret

00001aa2 <_Z13guiBootScreenv>:
//const uint16_t PROGRAMCOUNT = arch::programCount(); // there is a better c++ alternative // <<<<<<<
}



void guiBootScreen(){
    1aa2:	cf 93       	push	r28
		led::LFPrintString("-FUSSEL-");
    1aa4:	8d e6       	ldi	r24, 0x6D	; 109
    1aa6:	91 e0       	ldi	r25, 0x01	; 1
    1aa8:	a8 dd       	rcall	.-1200   	; 0x15fa <_ZN3led13LFPrintStringEPKc>
    1aaa:	c5 e0       	ldi	r28, 0x05	; 5
		for(uint8_t i = 0 ; i < 5; ++i){
			led::printDotsOnly(0xFF);
    1aac:	8f ef       	ldi	r24, 0xFF	; 255
    1aae:	ae dd       	rcall	.-1188   	; 0x160c <_ZN3led13printDotsOnlyEh>
			hardware::delay(500);
    1ab0:	84 ef       	ldi	r24, 0xF4	; 244
    1ab2:	91 e0       	ldi	r25, 0x01	; 1
    1ab4:	29 db       	rcall	.-2478   	; 0x1108 <_ZN8hardware5delayEj>
			led::printDotsOnly(0x00);
    1ab6:	80 e0       	ldi	r24, 0x00	; 0
    1ab8:	a9 dd       	rcall	.-1198   	; 0x160c <_ZN3led13printDotsOnlyEh>
			hardware::delay(500);
    1aba:	84 ef       	ldi	r24, 0xF4	; 244
    1abc:	91 e0       	ldi	r25, 0x01	; 1
    1abe:	24 db       	rcall	.-2488   	; 0x1108 <_ZN8hardware5delayEj>
    1ac0:	c1 50       	subi	r28, 0x01	; 1



void guiBootScreen(){
		led::LFPrintString("-FUSSEL-");
		for(uint8_t i = 0 ; i < 5; ++i){
    1ac2:	a1 f7       	brne	.-24     	; 0x1aac <_Z13guiBootScreenv+0xa>
			led::printDotsOnly(0xFF);
			hardware::delay(500);
			led::printDotsOnly(0x00);
			hardware::delay(500);
		}
		led::clear();
    1ac4:	6f dd       	rcall	.-1314   	; 0x15a4 <_ZN3led5clearEv>
}
    1ac6:	cf 91       	pop	r28
    1ac8:	08 95       	ret

00001aca <main>:
void after_selecting(){
	// do nothing
	led::clear();
}

int main(void){
    1aca:	cf 93       	push	r28
    1acc:	df 93       	push	r29
    1ace:	cd b7       	in	r28, 0x3d	; 61
    1ad0:	de b7       	in	r29, 0x3e	; 62
    1ad2:	29 97       	sbiw	r28, 0x09	; 9
    1ad4:	0f b6       	in	r0, 0x3f	; 63
    1ad6:	f8 94       	cli
    1ad8:	de bf       	out	0x3e, r29	; 62
    1ada:	0f be       	out	0x3f, r0	; 63
    1adc:	cd bf       	out	0x3d, r28	; 61
	//###
	// please check the board frequency of quartz and redefine fcpu in hardware.cpp
	// define dot position in ledline.cpp -> please find out it's hardware configuration
	
	/* test code */
	test::led_t::run();
    1ade:	7e de       	rcall	.-772    	; 0x17dc <_ZN4test5led_t3runEv>
	
	
	led::init(8);
    1ae0:	88 e0       	ldi	r24, 0x08	; 8
    1ae2:	70 dd       	rcall	.-1312   	; 0x15c4 <_ZN3led4initEh>
	guiBootScreen();
    1ae4:	de df       	rcall	.-68     	; 0x1aa2 <_Z13guiBootScreenv>
	
	led::LFPrintString("ARCH...");
    1ae6:	86 e7       	ldi	r24, 0x76	; 118
    1ae8:	91 e0       	ldi	r25, 0x01	; 1
    1aea:	87 dd       	rcall	.-1266   	; 0x15fa <_ZN3led13LFPrintStringEPKc>
	hardware::delay(2000);
    1aec:	80 ed       	ldi	r24, 0xD0	; 208
    1aee:	97 e0       	ldi	r25, 0x07	; 7
    1af0:	0b db       	rcall	.-2538   	; 0x1108 <_ZN8hardware5delayEj>
		/* push 15 bit to the light line (MSB first) and make it visible */
	
	inline void init(){//for init
		
		// IO register B for the lights:
		DDRB |= 0b00000111;// LATCH BIT ::: CLOCK BIT ::: DATA BIT
    1af2:	87 b3       	in	r24, 0x17	; 23
    1af4:	87 60       	ori	r24, 0x07	; 7
    1af6:	87 bb       	out	0x17, r24	; 23
		PORTB &= 0b11111000;
    1af8:	88 b3       	in	r24, 0x18	; 24
    1afa:	88 7f       	andi	r24, 0xF8	; 248
    1afc:	88 bb       	out	0x18, r24	; 24
		
		pushLineVisible(0xFFFF);
    1afe:	8f ef       	ldi	r24, 0xFF	; 255
    1b00:	9f ef       	ldi	r25, 0xFF	; 255
    1b02:	0e 94 7a 00 	call	0xf4	; 0xf4 <_ZN4arch15pushLineVisibleEj>
		hardware::delay(1000);
    1b06:	88 ee       	ldi	r24, 0xE8	; 232
    1b08:	93 e0       	ldi	r25, 0x03	; 3
    1b0a:	fe da       	rcall	.-2564   	; 0x1108 <_ZN8hardware5delayEj>
		pushLineVisible(0x0000);
    1b0c:	80 e0       	ldi	r24, 0x00	; 0
    1b0e:	90 e0       	ldi	r25, 0x00	; 0
    1b10:	0e 94 7a 00 	call	0xf4	; 0xf4 <_ZN4arch15pushLineVisibleEj>
		
		// maybe this could be left out, but for alarm function this could be useful
		runProgram(0);
    1b14:	80 e0       	ldi	r24, 0x00	; 0
    1b16:	0e 94 ff 01 	call	0x3fe	; 0x3fe <_ZN4arch10runProgramEh>
	arch::init();
	led::clear();
    1b1a:	44 dd       	rcall	.-1400   	; 0x15a4 <_ZN3led5clearEv>
		typedef struct item_s {
			char label[8];
			void (*procedure)();
		} item_t;
		
		ItemManager() : cancelProcedure(nullptr), position(0) {}
    1b1c:	1c 82       	std	Y+4, r1	; 0x04
    1b1e:	1b 82       	std	Y+3, r1	; 0x03
    1b20:	1e 82       	std	Y+6, r1	; 0x06
    1b22:	1d 82       	std	Y+5, r1	; 0x05
		
		virtual void runItemProcedureInternal() override; /* start running slected program in arch // this must be changed for later uses // and run the finalize function if non-null */
		
	public:
		
		ArcProgramItemManager() : finalProcedure(nullptr), includingOffProgram(true){}
    1b24:	85 e1       	ldi	r24, 0x15	; 21
    1b26:	91 e0       	ldi	r25, 0x01	; 1
    1b28:	9a 83       	std	Y+2, r25	; 0x02
    1b2a:	89 83       	std	Y+1, r24	; 0x01
    1b2c:	81 e0       	ldi	r24, 0x01	; 1
    1b2e:	89 87       	std	Y+9, r24	; 0x09
		
		inline virtual void init(void (*cancelProcedure)(), void (*finalProcedure)(), bool includingOffProgram) {
			ItemManager::init(cancelProcedure);
			this->finalProcedure = finalProcedure;
    1b30:	8f e4       	ldi	r24, 0x4F	; 79
    1b32:	9d e0       	ldi	r25, 0x0D	; 13
    1b34:	98 87       	std	Y+8, r25	; 0x08
    1b36:	8f 83       	std	Y+7, r24	; 0x07
	
	ArcProgramItemManager programItemManager;
	programItemManager.init(nullptr,after_selecting,true);
	ItemSelector::initialisation(2,0,1,&programItemManager);
    1b38:	9e 01       	movw	r18, r28
    1b3a:	2f 5f       	subi	r18, 0xFF	; 255
    1b3c:	3f 4f       	sbci	r19, 0xFF	; 255
    1b3e:	41 e0       	ldi	r20, 0x01	; 1
    1b40:	60 e0       	ldi	r22, 0x00	; 0
    1b42:	82 e0       	ldi	r24, 0x02	; 2
    1b44:	8e d9       	rcall	.-3300   	; 0xe62 <_ZN12ItemSelector14initialisationEhhhP11ItemManager>
	ItemSelector::run();
    1b46:	80 da       	rcall	.-2816   	; 0x1048 <_ZN12ItemSelector3runEv>
	while (1){
		arch::controller();
    1b48:	71 d8       	rcall	.-3870   	; 0xc2c <_ZN4arch10controllerEv>
    1b4a:	fe cf       	rjmp	.-4      	; 0x1b48 <main+0x7e>

00001b4c <__udivmodqi4>:
    1b4c:	99 1b       	sub	r25, r25
    1b4e:	79 e0       	ldi	r23, 0x09	; 9
    1b50:	04 c0       	rjmp	.+8      	; 0x1b5a <__udivmodqi4_ep>

00001b52 <__udivmodqi4_loop>:
    1b52:	99 1f       	adc	r25, r25
    1b54:	96 17       	cp	r25, r22
    1b56:	08 f0       	brcs	.+2      	; 0x1b5a <__udivmodqi4_ep>
    1b58:	96 1b       	sub	r25, r22

00001b5a <__udivmodqi4_ep>:
    1b5a:	88 1f       	adc	r24, r24
    1b5c:	7a 95       	dec	r23
    1b5e:	c9 f7       	brne	.-14     	; 0x1b52 <__udivmodqi4_loop>
    1b60:	80 95       	com	r24
    1b62:	08 95       	ret

00001b64 <__udivmodhi4>:
    1b64:	aa 1b       	sub	r26, r26
    1b66:	bb 1b       	sub	r27, r27
    1b68:	51 e1       	ldi	r21, 0x11	; 17
    1b6a:	07 c0       	rjmp	.+14     	; 0x1b7a <__udivmodhi4_ep>

00001b6c <__udivmodhi4_loop>:
    1b6c:	aa 1f       	adc	r26, r26
    1b6e:	bb 1f       	adc	r27, r27
    1b70:	a6 17       	cp	r26, r22
    1b72:	b7 07       	cpc	r27, r23
    1b74:	10 f0       	brcs	.+4      	; 0x1b7a <__udivmodhi4_ep>
    1b76:	a6 1b       	sub	r26, r22
    1b78:	b7 0b       	sbc	r27, r23

00001b7a <__udivmodhi4_ep>:
    1b7a:	88 1f       	adc	r24, r24
    1b7c:	99 1f       	adc	r25, r25
    1b7e:	5a 95       	dec	r21
    1b80:	a9 f7       	brne	.-22     	; 0x1b6c <__udivmodhi4_loop>
    1b82:	80 95       	com	r24
    1b84:	90 95       	com	r25
    1b86:	bc 01       	movw	r22, r24
    1b88:	cd 01       	movw	r24, r26
    1b8a:	08 95       	ret

00001b8c <__divmodhi4>:
    1b8c:	97 fb       	bst	r25, 7
    1b8e:	07 2e       	mov	r0, r23
    1b90:	16 f4       	brtc	.+4      	; 0x1b96 <__divmodhi4+0xa>
    1b92:	00 94       	com	r0
    1b94:	06 d0       	rcall	.+12     	; 0x1ba2 <__divmodhi4_neg1>
    1b96:	77 fd       	sbrc	r23, 7
    1b98:	08 d0       	rcall	.+16     	; 0x1baa <__divmodhi4_neg2>
    1b9a:	e4 df       	rcall	.-56     	; 0x1b64 <__udivmodhi4>
    1b9c:	07 fc       	sbrc	r0, 7
    1b9e:	05 d0       	rcall	.+10     	; 0x1baa <__divmodhi4_neg2>
    1ba0:	3e f4       	brtc	.+14     	; 0x1bb0 <__divmodhi4_exit>

00001ba2 <__divmodhi4_neg1>:
    1ba2:	90 95       	com	r25
    1ba4:	81 95       	neg	r24
    1ba6:	9f 4f       	sbci	r25, 0xFF	; 255
    1ba8:	08 95       	ret

00001baa <__divmodhi4_neg2>:
    1baa:	70 95       	com	r23
    1bac:	61 95       	neg	r22
    1bae:	7f 4f       	sbci	r23, 0xFF	; 255

00001bb0 <__divmodhi4_exit>:
    1bb0:	08 95       	ret

00001bb2 <__moddi3>:
    1bb2:	68 94       	set
    1bb4:	01 c0       	rjmp	.+2      	; 0x1bb8 <__divdi3_moddi3>

00001bb6 <__divdi3>:
    1bb6:	e8 94       	clt

00001bb8 <__divdi3_moddi3>:
    1bb8:	f9 2f       	mov	r31, r25
    1bba:	f1 2b       	or	r31, r17
    1bbc:	0a f0       	brmi	.+2      	; 0x1bc0 <__divdi3_moddi3+0x8>
    1bbe:	27 c0       	rjmp	.+78     	; 0x1c0e <__udivdi3_umoddi3>
    1bc0:	a0 e0       	ldi	r26, 0x00	; 0
    1bc2:	b0 e0       	ldi	r27, 0x00	; 0
    1bc4:	e5 ee       	ldi	r30, 0xE5	; 229
    1bc6:	fd e0       	ldi	r31, 0x0D	; 13
    1bc8:	93 c0       	rjmp	.+294    	; 0x1cf0 <__prologue_saves__+0xc>
    1bca:	09 2e       	mov	r0, r25
    1bcc:	05 94       	asr	r0
    1bce:	1a f4       	brpl	.+6      	; 0x1bd6 <__divdi3_moddi3+0x1e>
    1bd0:	79 d0       	rcall	.+242    	; 0x1cc4 <__negdi2>
    1bd2:	11 23       	and	r17, r17
    1bd4:	92 f4       	brpl	.+36     	; 0x1bfa <__divdi3_moddi3+0x42>
    1bd6:	f0 e8       	ldi	r31, 0x80	; 128
    1bd8:	0f 26       	eor	r0, r31
    1bda:	ff ef       	ldi	r31, 0xFF	; 255
    1bdc:	e0 94       	com	r14
    1bde:	f0 94       	com	r15
    1be0:	00 95       	com	r16
    1be2:	10 95       	com	r17
    1be4:	b0 94       	com	r11
    1be6:	c0 94       	com	r12
    1be8:	d0 94       	com	r13
    1bea:	a1 94       	neg	r10
    1bec:	bf 0a       	sbc	r11, r31
    1bee:	cf 0a       	sbc	r12, r31
    1bf0:	df 0a       	sbc	r13, r31
    1bf2:	ef 0a       	sbc	r14, r31
    1bf4:	ff 0a       	sbc	r15, r31
    1bf6:	0f 0b       	sbc	r16, r31
    1bf8:	1f 0b       	sbc	r17, r31
    1bfa:	13 d0       	rcall	.+38     	; 0x1c22 <__udivmod64>
    1bfc:	07 fc       	sbrc	r0, 7
    1bfe:	62 d0       	rcall	.+196    	; 0x1cc4 <__negdi2>
    1c00:	cd b7       	in	r28, 0x3d	; 61
    1c02:	de b7       	in	r29, 0x3e	; 62
    1c04:	ec e0       	ldi	r30, 0x0C	; 12
    1c06:	90 c0       	rjmp	.+288    	; 0x1d28 <__epilogue_restores__+0xc>

00001c08 <__umoddi3>:
    1c08:	68 94       	set
    1c0a:	01 c0       	rjmp	.+2      	; 0x1c0e <__udivdi3_umoddi3>

00001c0c <__udivdi3>:
    1c0c:	e8 94       	clt

00001c0e <__udivdi3_umoddi3>:
    1c0e:	8f 92       	push	r8
    1c10:	9f 92       	push	r9
    1c12:	cf 93       	push	r28
    1c14:	df 93       	push	r29
    1c16:	05 d0       	rcall	.+10     	; 0x1c22 <__udivmod64>
    1c18:	df 91       	pop	r29
    1c1a:	cf 91       	pop	r28
    1c1c:	9f 90       	pop	r9
    1c1e:	8f 90       	pop	r8
    1c20:	08 95       	ret

00001c22 <__udivmod64>:
    1c22:	88 24       	eor	r8, r8
    1c24:	99 24       	eor	r9, r9
    1c26:	f4 01       	movw	r30, r8
    1c28:	e4 01       	movw	r28, r8
    1c2a:	b0 e4       	ldi	r27, 0x40	; 64
    1c2c:	9f 93       	push	r25
    1c2e:	aa 27       	eor	r26, r26
    1c30:	9a 15       	cp	r25, r10
    1c32:	8b 04       	cpc	r8, r11
    1c34:	9c 04       	cpc	r9, r12
    1c36:	ed 05       	cpc	r30, r13
    1c38:	fe 05       	cpc	r31, r14
    1c3a:	cf 05       	cpc	r28, r15
    1c3c:	d0 07       	cpc	r29, r16
    1c3e:	a1 07       	cpc	r26, r17
    1c40:	98 f4       	brcc	.+38     	; 0x1c68 <__udivmod64+0x46>
    1c42:	ad 2f       	mov	r26, r29
    1c44:	dc 2f       	mov	r29, r28
    1c46:	cf 2f       	mov	r28, r31
    1c48:	fe 2f       	mov	r31, r30
    1c4a:	e9 2d       	mov	r30, r9
    1c4c:	98 2c       	mov	r9, r8
    1c4e:	89 2e       	mov	r8, r25
    1c50:	98 2f       	mov	r25, r24
    1c52:	87 2f       	mov	r24, r23
    1c54:	76 2f       	mov	r23, r22
    1c56:	65 2f       	mov	r22, r21
    1c58:	54 2f       	mov	r21, r20
    1c5a:	43 2f       	mov	r20, r19
    1c5c:	32 2f       	mov	r19, r18
    1c5e:	22 27       	eor	r18, r18
    1c60:	b8 50       	subi	r27, 0x08	; 8
    1c62:	31 f7       	brne	.-52     	; 0x1c30 <__udivmod64+0xe>
    1c64:	bf 91       	pop	r27
    1c66:	27 c0       	rjmp	.+78     	; 0x1cb6 <__udivmod64+0x94>
    1c68:	1b 2e       	mov	r1, r27
    1c6a:	bf 91       	pop	r27
    1c6c:	bb 27       	eor	r27, r27
    1c6e:	22 0f       	add	r18, r18
    1c70:	33 1f       	adc	r19, r19
    1c72:	44 1f       	adc	r20, r20
    1c74:	55 1f       	adc	r21, r21
    1c76:	66 1f       	adc	r22, r22
    1c78:	77 1f       	adc	r23, r23
    1c7a:	88 1f       	adc	r24, r24
    1c7c:	99 1f       	adc	r25, r25
    1c7e:	88 1c       	adc	r8, r8
    1c80:	99 1c       	adc	r9, r9
    1c82:	ee 1f       	adc	r30, r30
    1c84:	ff 1f       	adc	r31, r31
    1c86:	cc 1f       	adc	r28, r28
    1c88:	dd 1f       	adc	r29, r29
    1c8a:	aa 1f       	adc	r26, r26
    1c8c:	bb 1f       	adc	r27, r27
    1c8e:	8a 14       	cp	r8, r10
    1c90:	9b 04       	cpc	r9, r11
    1c92:	ec 05       	cpc	r30, r12
    1c94:	fd 05       	cpc	r31, r13
    1c96:	ce 05       	cpc	r28, r14
    1c98:	df 05       	cpc	r29, r15
    1c9a:	a0 07       	cpc	r26, r16
    1c9c:	b1 07       	cpc	r27, r17
    1c9e:	48 f0       	brcs	.+18     	; 0x1cb2 <__udivmod64+0x90>
    1ca0:	8a 18       	sub	r8, r10
    1ca2:	9b 08       	sbc	r9, r11
    1ca4:	ec 09       	sbc	r30, r12
    1ca6:	fd 09       	sbc	r31, r13
    1ca8:	ce 09       	sbc	r28, r14
    1caa:	df 09       	sbc	r29, r15
    1cac:	a0 0b       	sbc	r26, r16
    1cae:	b1 0b       	sbc	r27, r17
    1cb0:	21 60       	ori	r18, 0x01	; 1
    1cb2:	1a 94       	dec	r1
    1cb4:	e1 f6       	brne	.-72     	; 0x1c6e <__udivmod64+0x4c>
    1cb6:	2e f4       	brtc	.+10     	; 0x1cc2 <__udivmod64+0xa0>
    1cb8:	94 01       	movw	r18, r8
    1cba:	af 01       	movw	r20, r30
    1cbc:	be 01       	movw	r22, r28
    1cbe:	cd 01       	movw	r24, r26
    1cc0:	00 0c       	add	r0, r0
    1cc2:	08 95       	ret

00001cc4 <__negdi2>:
    1cc4:	60 95       	com	r22
    1cc6:	70 95       	com	r23
    1cc8:	80 95       	com	r24
    1cca:	90 95       	com	r25
    1ccc:	30 95       	com	r19
    1cce:	40 95       	com	r20
    1cd0:	50 95       	com	r21
    1cd2:	21 95       	neg	r18
    1cd4:	3f 4f       	sbci	r19, 0xFF	; 255
    1cd6:	4f 4f       	sbci	r20, 0xFF	; 255
    1cd8:	5f 4f       	sbci	r21, 0xFF	; 255
    1cda:	6f 4f       	sbci	r22, 0xFF	; 255
    1cdc:	7f 4f       	sbci	r23, 0xFF	; 255
    1cde:	8f 4f       	sbci	r24, 0xFF	; 255
    1ce0:	9f 4f       	sbci	r25, 0xFF	; 255
    1ce2:	08 95       	ret

00001ce4 <__prologue_saves__>:
    1ce4:	2f 92       	push	r2
    1ce6:	3f 92       	push	r3
    1ce8:	4f 92       	push	r4
    1cea:	5f 92       	push	r5
    1cec:	6f 92       	push	r6
    1cee:	7f 92       	push	r7
    1cf0:	8f 92       	push	r8
    1cf2:	9f 92       	push	r9
    1cf4:	af 92       	push	r10
    1cf6:	bf 92       	push	r11
    1cf8:	cf 92       	push	r12
    1cfa:	df 92       	push	r13
    1cfc:	ef 92       	push	r14
    1cfe:	ff 92       	push	r15
    1d00:	0f 93       	push	r16
    1d02:	1f 93       	push	r17
    1d04:	cf 93       	push	r28
    1d06:	df 93       	push	r29
    1d08:	cd b7       	in	r28, 0x3d	; 61
    1d0a:	de b7       	in	r29, 0x3e	; 62
    1d0c:	ca 1b       	sub	r28, r26
    1d0e:	db 0b       	sbc	r29, r27
    1d10:	0f b6       	in	r0, 0x3f	; 63
    1d12:	f8 94       	cli
    1d14:	de bf       	out	0x3e, r29	; 62
    1d16:	0f be       	out	0x3f, r0	; 63
    1d18:	cd bf       	out	0x3d, r28	; 61
    1d1a:	09 94       	ijmp

00001d1c <__epilogue_restores__>:
    1d1c:	2a 88       	ldd	r2, Y+18	; 0x12
    1d1e:	39 88       	ldd	r3, Y+17	; 0x11
    1d20:	48 88       	ldd	r4, Y+16	; 0x10
    1d22:	5f 84       	ldd	r5, Y+15	; 0x0f
    1d24:	6e 84       	ldd	r6, Y+14	; 0x0e
    1d26:	7d 84       	ldd	r7, Y+13	; 0x0d
    1d28:	8c 84       	ldd	r8, Y+12	; 0x0c
    1d2a:	9b 84       	ldd	r9, Y+11	; 0x0b
    1d2c:	aa 84       	ldd	r10, Y+10	; 0x0a
    1d2e:	b9 84       	ldd	r11, Y+9	; 0x09
    1d30:	c8 84       	ldd	r12, Y+8	; 0x08
    1d32:	df 80       	ldd	r13, Y+7	; 0x07
    1d34:	ee 80       	ldd	r14, Y+6	; 0x06
    1d36:	fd 80       	ldd	r15, Y+5	; 0x05
    1d38:	0c 81       	ldd	r16, Y+4	; 0x04
    1d3a:	1b 81       	ldd	r17, Y+3	; 0x03
    1d3c:	aa 81       	ldd	r26, Y+2	; 0x02
    1d3e:	b9 81       	ldd	r27, Y+1	; 0x01
    1d40:	ce 0f       	add	r28, r30
    1d42:	d1 1d       	adc	r29, r1
    1d44:	0f b6       	in	r0, 0x3f	; 63
    1d46:	f8 94       	cli
    1d48:	de bf       	out	0x3e, r29	; 62
    1d4a:	0f be       	out	0x3f, r0	; 63
    1d4c:	cd bf       	out	0x3d, r28	; 61
    1d4e:	ed 01       	movw	r28, r26
    1d50:	08 95       	ret

00001d52 <__ashldi3>:
    1d52:	0f 93       	push	r16
    1d54:	08 30       	cpi	r16, 0x08	; 8
    1d56:	90 f0       	brcs	.+36     	; 0x1d7c <__ashldi3+0x2a>
    1d58:	98 2f       	mov	r25, r24
    1d5a:	87 2f       	mov	r24, r23
    1d5c:	76 2f       	mov	r23, r22
    1d5e:	65 2f       	mov	r22, r21
    1d60:	54 2f       	mov	r21, r20
    1d62:	43 2f       	mov	r20, r19
    1d64:	32 2f       	mov	r19, r18
    1d66:	22 27       	eor	r18, r18
    1d68:	08 50       	subi	r16, 0x08	; 8
    1d6a:	f4 cf       	rjmp	.-24     	; 0x1d54 <__ashldi3+0x2>
    1d6c:	22 0f       	add	r18, r18
    1d6e:	33 1f       	adc	r19, r19
    1d70:	44 1f       	adc	r20, r20
    1d72:	55 1f       	adc	r21, r21
    1d74:	66 1f       	adc	r22, r22
    1d76:	77 1f       	adc	r23, r23
    1d78:	88 1f       	adc	r24, r24
    1d7a:	99 1f       	adc	r25, r25
    1d7c:	0a 95       	dec	r16
    1d7e:	b2 f7       	brpl	.-20     	; 0x1d6c <__ashldi3+0x1a>
    1d80:	0f 91       	pop	r16
    1d82:	08 95       	ret

00001d84 <__ashrdi3>:
    1d84:	97 fb       	bst	r25, 7
    1d86:	10 f8       	bld	r1, 0

00001d88 <__lshrdi3>:
    1d88:	16 94       	lsr	r1
    1d8a:	00 08       	sbc	r0, r0
    1d8c:	0f 93       	push	r16
    1d8e:	08 30       	cpi	r16, 0x08	; 8
    1d90:	98 f0       	brcs	.+38     	; 0x1db8 <__lshrdi3+0x30>
    1d92:	08 50       	subi	r16, 0x08	; 8
    1d94:	23 2f       	mov	r18, r19
    1d96:	34 2f       	mov	r19, r20
    1d98:	45 2f       	mov	r20, r21
    1d9a:	56 2f       	mov	r21, r22
    1d9c:	67 2f       	mov	r22, r23
    1d9e:	78 2f       	mov	r23, r24
    1da0:	89 2f       	mov	r24, r25
    1da2:	90 2d       	mov	r25, r0
    1da4:	f4 cf       	rjmp	.-24     	; 0x1d8e <__lshrdi3+0x6>
    1da6:	05 94       	asr	r0
    1da8:	97 95       	ror	r25
    1daa:	87 95       	ror	r24
    1dac:	77 95       	ror	r23
    1dae:	67 95       	ror	r22
    1db0:	57 95       	ror	r21
    1db2:	47 95       	ror	r20
    1db4:	37 95       	ror	r19
    1db6:	27 95       	ror	r18
    1db8:	0a 95       	dec	r16
    1dba:	aa f7       	brpl	.-22     	; 0x1da6 <__lshrdi3+0x1e>
    1dbc:	0f 91       	pop	r16
    1dbe:	08 95       	ret

00001dc0 <__adddi3>:
    1dc0:	2a 0d       	add	r18, r10
    1dc2:	3b 1d       	adc	r19, r11
    1dc4:	4c 1d       	adc	r20, r12
    1dc6:	5d 1d       	adc	r21, r13
    1dc8:	6e 1d       	adc	r22, r14
    1dca:	7f 1d       	adc	r23, r15
    1dcc:	80 1f       	adc	r24, r16
    1dce:	91 1f       	adc	r25, r17
    1dd0:	08 95       	ret

00001dd2 <__cmpdi2_s8>:
    1dd2:	00 24       	eor	r0, r0
    1dd4:	a7 fd       	sbrc	r26, 7
    1dd6:	00 94       	com	r0
    1dd8:	2a 17       	cp	r18, r26
    1dda:	30 05       	cpc	r19, r0
    1ddc:	40 05       	cpc	r20, r0
    1dde:	50 05       	cpc	r21, r0
    1de0:	60 05       	cpc	r22, r0
    1de2:	70 05       	cpc	r23, r0
    1de4:	80 05       	cpc	r24, r0
    1de6:	90 05       	cpc	r25, r0
    1de8:	08 95       	ret

00001dea <eeprom_read_byte>:
    1dea:	e1 99       	sbic	0x1c, 1	; 28
    1dec:	fe cf       	rjmp	.-4      	; 0x1dea <eeprom_read_byte>
    1dee:	9f bb       	out	0x1f, r25	; 31
    1df0:	8e bb       	out	0x1e, r24	; 30
    1df2:	e0 9a       	sbi	0x1c, 0	; 28
    1df4:	99 27       	eor	r25, r25
    1df6:	8d b3       	in	r24, 0x1d	; 29
    1df8:	08 95       	ret

00001dfa <_exit>:
    1dfa:	f8 94       	cli

00001dfc <__stop_program>:
    1dfc:	ff cf       	rjmp	.-2      	; 0x1dfc <__stop_program>
